(dp0
S'uninterested'
p1
(lp2
F0.0
aF0.0
aF0.0
aF0.0
aF0.037651293
aF0.02191988
aF0.0
aF0.0
aF0.036517374
aF0.09309319
aF0.0
aF0.0
aF0.0
aF0.20868337
aF0.0
aF0.12614161
aF0.0
aF0.0
aF0.0
asS'Sadly'
p3
(lp4
F0.0
aF0.09194861
aF0.029935561
aF0.024864031
aF0.07506977
aF0.0
aF0.026733931
aF0.04608035
aF0.0
aF0.013217272
aF0.06949534
aF0.032277096
aF0.0
aF0.009927626
aF0.1088101
aF0.0647369
aF0.0
aF0.14559825
aF0.07719776
asS'doubts'
p5
(lp6
F0.0004881964
aF0.11118348
aF0.10836319
aF0.037151944
aF0.33261424
aF0.29478052
aF0.028345544
aF0.1849336
aF0.12527612
aF0.12389046
aF0.08231835
aF0.20906016
aF0.16825135
aF0.011915558
aF0.13725449
aF0.08483583
aF0.0010760042
aF0.10262049
aF0.0
asS'focus'
p7
(lp8
F0.053039186
aF0.053306248
aF0.0
aF0.000869
aF0.0
aF0.036024537
aF0.003991412
aF0.0
aF0.0
aF0.007813487
aF0.047329992
aF0.032391742
aF0.0
aF0.25244513
aF0.00650145
aF0.0
aF0.037050817
aF0.065748155
aF0.1632154
asS'month'
p9
(lp10
F0.021527272
aF0.0
aF0.008880687
aF0.0
aF0.010660196
aF0.0053197066
aF0.03204721
aF0.011172546
aF0.009213061
aF0.010537455
aF0.023373643
aF0.036950782
aF0.0
aF0.028985746
aF0.004946183
aF0.0
aF0.019289004
aF0.044085387
aF0.0
asS'cheerful'
p11
(lp12
F0.1655177
aF0.27484494
aF0.0
aF0.015250967
aF0.0
aF0.0
aF0.09842912
aF0.10508584
aF0.0
aF0.0
aF0.0
aF0.0
aF0.0
aF0.009240438
aF0.0
aF0.0
aF0.0
aF0.0
aF0.0
asS'grateful'
p13
(lp14
F0.03578683
aF0.0
aF0.0
aF0.0
aF0.030609993
aF0.0
aF0.025898289
aF0.0
aF0.07099286
aF0.044463832
aF0.0
aF0.060950965
aF0.0
aF0.0
aF0.055054672
aF0.0
aF0.003880499
aF0.012368675
aF0.0
asS'hate'
p15
(lp16
F0.031943683
aF0.021958554
aF0.1887799
aF0.037272085
aF0.328421
aF0.048749957
aF0.0
aF0.0
aF0.928263
aF0.367048
aF0.13950515
aF0.13829362
aF0.0
aF0.0
aF0.05512653
aF0.20968091
aF0.0
aF0.06607437
aF0.0
asS'issues'
p17
(lp18
F0.018994495
aF0.0
aF0.011801209
aF0.016228124
aF0.15867566
aF0.008143446
aF0.023027416
aF0.0
aF0.0
aF0.0
aF0.1175391
aF0.04628289
aF0.0
aF0.2324086
aF0.0
aF0.011286828
aF0.0
aF0.04416481
aF0.03212059
asS'dreadful'
p19
(lp20
F0.07510181
aF0.0
aF0.004474377
aF0.0
aF0.14770144
aF0.23289303
aF0.11018839
aF0.015174903
aF0.07232864
aF0.065933
aF0.11282459
aF0.0
aF0.018643389
aF0.044398222
aF0.16988768
aF0.02675449
aF0.0
aF0.17154801
aF0.0
asS'Vinci'
p21
(lp22
I0
aI0
aI0
aI0
aI0
aI0
aI0
aI0
aI0
aI0
aI0
aI0
aI0
aI0
aI0
aI0
aI0
aI0
aI0
asS'Standard'
p23
(lp24
F0.0
aF0.0
aF0.03440195
aF0.16156676
aF0.034641184
aF0.017208284
aF0.017924864
aF0.013752884
aF0.0057170056
aF0.0022023383
aF0.03606376
aF0.006644182
aF0.0
aF0.03402922
aF0.017519472
aF0.0032779574
aF0.0
aF0.022557762
aF0.0
asS'0'
p25
(lp26
I0
aI0
aI0
aI0
aI0
aI0
aI0
aI0
aI0
aI0
aI0
aI0
aI0
aI0
aI0
aI0
aI0
aI0
aI0
asS'finally'
p27
(lp28
F3.37e-06
aF0.012113157
aF0.004980293
aF0.025935812
aF0.0
aF0.0
aF0.0
aF0.078454554
aF0.0445803
aF0.028678998
aF0.05406219
aF0.026750943
aF0.0
aF0.008087638
aF0.0
aF0.044844013
aF0.0778523
aF0.03685548
aF0.07352104
asS'unpleasant'
p29
(lp30
F0.059311748
aF0.0
aF0.0
aF0.0
aF0.04090794
aF0.054894865
aF0.0
aF0.0
aF0.0
aF0.024788527
aF0.0
aF0.07053383
aF0.0
aF0.0
aF0.029748946
aF0.0
aF0.0
aF0.03131397
aF0.0
asS'dissatisfied'
p31
(lp32
F0.0
aF0.0
aF0.0
aF0.1324292
aF0.032612737
aF0.108179495
aF0.0
aF0.012004405
aF0.05152421
aF0.16834287
aF0.03380673
aF0.112612404
aF0.0
aF0.0
aF0.03412
aF0.07620357
aF0.029408937
aF0.0
aF0.0
asS'ti'
p33
(lp34
I0
aI0
aI0
aI0
aI0
aI0
aI0
aI0
aI0
aI0
aI0
aI0
aI0
aI0
aI0
aI0
aI0
aI0
aI0
asS'terror'
p35
(lp36
F0.17138726
aF0.05768072
aF0.033827323
aF0.0
aF0.8191474
aF0.25400212
aF0.2681381
aF0.19056721
aF0.15177536
aF0.17463273
aF0.2929557
aF0.21707225
aF0.14116004
aF0.0
aF0.21078636
aF0.004422061
aF0.001209636
aF0.27385518
aF0.0
asS'pride'
p37
(lp38
F0.397805
aF0.39199975
aF0.35035974
aF0.12996197
aF0.25537667
aF0.2182127
aF0.27300814
aF0.10852543
aF0.22067162
aF0.25206783
aF0.30343038
aF0.35432586
aF0.17433666
aF0.10311386
aF0.2534575
aF0.11840666
aF0.16287301
aF0.26551172
aF0.19652162
asS'tenacious'
p39
(lp40
F0.0
aF0.010503144
aF0.0
aF0.02024411
aF0.0
aF0.0
aF0.034251656
aF0.0
aF0.0
aF0.009278969
aF0.0
aF0.0
aF0.0
aF0.024681611
aF0.006491535
aF0.0
aF0.0
aF0.021085316
aF0.023405751
asS'torture'
p41
(lp42
F0.0
aF0.044368785
aF0.013432276
aF0.07988709
aF0.005910838
aF0.019138465
aF0.0
aF0.0
aF0.0
aF0.0
aF0.0
aF0.0
aF0.0
aF0.025609456
aF0.025609456
aF0.0
aF0.00305094
aF0.0
aF0.03592243
asS'compassion'
p43
(lp44
F0.20276521
aF0.24965303
aF0.34258062
aF0.108582795
aF0.0
aF0.0
aF0.1412389
aF0.026758865
aF0.0
aF0.0
aF0.0
aF0.0
aF0.0
aF0.07436805
aF0.0
aF0.0
aF0.22035575
aF0.0
aF0.37030393
asS'vociferous'
p45
(lp46
F0.042283352
aF0.007297173
aF0.09633555
aF0.012295534
aF0.04360704
aF0.021977177
aF0.11605433
aF0.000717
aF0.17928304
aF0.09878197
aF0.06965499
aF0.07118367
aF0.0
aF0.037850067
aF0.0
aF0.18117239
aF0.0
aF0.008246847
aF0.040796753
asS'continues'
p47
(lp48
F0.0
aF0.045762498
aF0.029252252
aF0.05590698
aF0.032790184
aF0.0110102305
aF0.047468897
aF0.0
aF0.00022936519
aF0.0
aF0.099712774
aF0.0
aF0.036207758
aF0.09232813
aF0.000386979
aF0.051366393
aF0.07989365
aF0.0
aF0.0
asS'carefree'
p49
(lp50
F0.026230708
aF0.030105175
aF0.014164286
aF0.02304446
aF0.0
aF0.0
aF0.0
aF0.0
aF0.00392695
aF0.0
aF0.0
aF0.0
aF0.0
aF0.02721973
aF0.0
aF0.0
aF0.037100337
aF0.0
aF0.0
asS'worst'
p51
(lp52
F0.0
aF0.04751796
aF0.0
aF0.010741789
aF0.15447187
aF0.007036293
aF0.0
aF0.0
aF0.0
aF0.026274031
aF0.16710272
aF0.05250905
aF0.0
aF0.016977007
aF0.0
aF0.018917225
aF0.0
aF0.0
aF0.039785955
asS'accuse'
p53
(lp54
F2.73e-05
aF0.034448385
aF0.014023442
aF0.001580904
aF0.13948236
aF0.0
aF0.013305135
aF0.0
aF0.0
aF0.01218887
aF0.03190393
aF0.04579351
aF0.025429964
aF0.06178567
aF0.0
aF0.0237433
aF0.034598254
aF0.007082265
aF0.0
asS'forgiving'
p55
(lp56
F0.02898761
aF0.03250767
aF0.085143395
aF0.04297157
aF0.019912899
aF0.033762995
aF0.015396046
aF0.0
aF0.0
aF0.03634575
aF0.0
aF0.0
aF0.07083227
aF0.05017904
aF0.04113244
aF0.02112216
aF0.0
aF0.04343906
aF0.05978285
asS'courageous'
p57
(lp58
F0.002292796
aF0.0282346
aF0.0
aF0.0
aF0.034304228
aF0.0
aF0.029880807
aF0.038573824
aF0.0
aF0.060640767
aF0.003631776
aF0.03266299
aF0.0
aF0.0
aF0.036298394
aF0.0
aF0.0
aF0.04224632
aF0.0
asS'cool'
p59
(lp60
F0.0
aF0.033755366
aF0.08200665
aF0.021068905
aF0.0
aF0.013483022
aF0.002134434
aF0.0
aF0.0
aF0.0
aF0.053425338
aF0.033885423
aF0.0
aF0.0936848
aF0.020609792
aF0.003351961
aF0.047752008
aF0.024792697
aF0.05114326
asS'deplorably'
p61
(lp62
F0.0
aF0.037821572
aF0.0
aF0.01670823
aF0.0
aF0.0
aF0.007333287
aF0.0
aF0.09213401
aF0.004143535
aF0.03731789
aF0.0
aF0.0
aF0.0
aF0.011221231
aF0.0
aF0.0
aF0.001195972
aF0.0
asS'despicably '
p63
(lp64
F0.0
aF0.0
aF0.0
aF0.0
aF0.0
aF0.10188282
aF0.0
aF0.0
aF0.11589251
aF0.116445534
aF0.0
aF0.0
aF0.0
aF0.0
aF0.0
aF0.39924487
aF0.0
aF0.0
aF0.0
asS'posts'
p65
(lp66
F0.0
aF0.009807446
aF0.019056873
aF0.072292484
aF0.039938387
aF0.018876765
aF0.07338201
aF0.031039074
aF0.060942605
aF0.05265118
aF0.049507163
aF0.04974955
aF0.04810093
aF0.041757237
aF0.10716747
aF0.0
aF0.0
aF0.08508153
aF0.019367946
asS'anxious'
p67
(lp68
F0.0
aF0.0
aF0.0
aF0.0
aF0.21339683
aF0.20220105
aF0.0
aF0.0
aF0.0
aF0.0
aF0.0
aF0.08330509
aF0.0
aF0.0
aF0.0
aF0.0
aF0.0
aF0.0
aF0.0
asS'solid'
p69
(lp70
F0.0
aF0.030519804
aF0.010122427
aF0.016153498
aF0.0
aF0.022658156
aF0.0
aF0.10197283
aF0.02912705
aF0.054319985
aF0.033134654
aF0.006521962
aF0.015252445
aF0.030740233
aF0.0
aF0.08778193
aF0.0
aF0.000791
aF0.0
asS'team'
p71
(lp72
F0.0230081
aF0.08742121
aF0.020355022
aF0.001746778
aF0.002062939
aF0.0052731787
aF0.061595164
aF0.060869712
aF0.031488262
aF0.046006944
aF0.0
aF0.0
aF0.06882625
aF0.0026687745
aF0.04496723
aF0.0321533
aF0.0
aF0.0
aF0.08228717
asS'quaking'
p73
(lp74
F0.1107272
aF0.0
aF0.0
aF0.038077284
aF0.13047358
aF0.1616986
aF0.0
aF0.17311712
aF0.17529742
aF0.10441052
aF0.09276025
aF0.0
aF0.0
aF0.0
aF0.10810084
aF0.059861604
aF0.0
aF0.09548501
aF0.0
asS'deplorable'
p75
(lp76
F0.0
aF0.037821572
aF0.0
aF0.01670823
aF0.0
aF0.0
aF0.007333287
aF0.0
aF0.09213401
aF0.004143535
aF0.03731789
aF0.0
aF0.0
aF0.0
aF0.011221231
aF0.0
aF0.0
aF0.001195972
aF0.0
asS'UniteBlue'
p77
(lp78
F0.05688832
aF0.0
aF0.0572877
aF0.04181914
aF0.0
aF0.04538614
aF0.016549468
aF0.008210401
aF0.026505984
aF0.022252966
aF0.0
aF0.013536938
aF0.018261895
aF0.091910616
aF0.0351522
aF0.021200094
aF0.09204657
aF0.0
aF0.096443266
asS'Shocked'
p79
(lp80
F0.04211399
aF0.01876208
aF0.08068798
aF0.03685376
aF0.061193947
aF0.048830543
aF0.5256535
aF0.9083772
aF0.03896329
aF0.22364207
aF0.04176834
aF0.06129118
aF0.058929842
aF0.090899415
aF0.074503906
aF0.14448774
aF0.03953529
aF0.09046601
aF0.0
asS'cost'
p81
(lp82
F0.047263756
aF0.007795052
aF0.013442936
aF0.03103528
aF0.040202934
aF0.01691508
aF0.04458456
aF0.02799527
aF0.027381893
aF0.067784496
aF0.019002568
aF0.013352508
aF0.0080778515
aF0.34219187
aF0.04845312
aF0.026413983
aF0.0
aF0.061461717
aF0.0
asS'valiant'
p83
(lp84
F0.0
aF0.015109907
aF0.18240982
aF0.022860033
aF0.05128564
aF0.017650804
aF0.0
aF0.0
aF0.04542457
aF0.0
aF0.009263549
aF0.0
aF0.0
aF0.002758752
aF0.007517944
aF0.0
aF0.021579403
aF0.03523943
aF0.015016828
asS'exuberant'
p85
(lp86
F0.0249628
aF0.07210242
aF0.0
aF0.060604792
aF0.0
aF0.0
aF0.0
aF0.0
aF0.0
aF0.0
aF0.0
aF0.0
aF0.080492
aF0.061409105
aF0.0
aF0.0
aF0.13086948
aF0.0
aF0.043832764
asS'Collins'
p87
(lp88
F0.0
aF0.0
aF0.0
aF0.0
aF0.0
aF0.0
aF0.0
aF0.0
aF0.0
aF0.0
aF0.0
aF0.0
aF0.0
aF0.0
aF0.0
aF0.0
aF0.0
aF0.0
aF0.0
asS'abominable'
p89
(lp90
F0.06088639
aF0.004487995
aF0.021248022
aF0.000484
aF0.044099808
aF0.010481562
aF0.054639533
aF0.0
aF0.08658902
aF0.051659267
aF0.08514327
aF0.084350966
aF0.0
aF0.029549628
aF0.069848046
aF0.020228235
aF0.0
aF0.05764077
aF0.001773455
asS'aggressive'
p91
(lp92
F0.0
aF0.0
aF0.0
aF0.0
aF0.035861295
aF0.06301713
aF0.0
aF0.0
aF0.0
aF0.0
aF0.027435288
aF0.09228472
aF0.0
aF0.0
aF0.0
aF0.027840942
aF0.0
aF0.0
aF0.0
asS'irritated'
p93
(lp94
F0.0
aF0.0
aF0.0
aF0.0790832
aF0.0
aF0.0
aF0.0
aF0.0
aF0.031528167
aF0.012760701
aF0.0
aF0.15226553
aF0.0
aF0.0
aF0.0
aF0.0
aF0.0
aF0.0
aF0.0
asS'defence'
p95
(lp96
F0.0
aF0.0
aF0.06604372
aF0.018111566
aF0.003719174
aF0.0
aF0.016846681
aF0.036975525
aF0.07508439
aF0.0
aF0.027228788
aF0.001741189
aF0.011330931
aF0.001496561
aF0.015777184
aF0.040933024
aF0.0
aF0.013715349
aF0.0
asS'Paribas'
p97
(lp98
F0.0
aF0.0
aF0.0
aF0.0
aF0.0
aF0.0
aF0.0
aF0.0
aF0.0
aF0.0
aF0.0
aF0.0
aF0.0
aF0.0
aF0.0
aF0.0
aF0.0
aF0.0
aF0.0
asS'overwhelmed'
p99
(lp100
F0.0
aF0.0
aF0.0
aF0.0
aF0.09950046
aF0.025401343
aF0.0
aF0.0
aF0.022459399
aF0.0
aF0.12759379
aF0.06947145
aF0.0
aF0.0
aF0.14042498
aF0.0
aF0.0
aF0.2370789
aF0.0
asS'liberated'
p101
(lp102
F0.014693061
aF0.0
aF0.003985564
aF0.0
aF0.0
aF0.0
aF0.0
aF0.000176
aF0.0
aF0.03634119
aF0.013487502
aF0.0
aF0.0
aF0.0
aF0.0
aF0.0
aF0.04625944
aF0.09003615
aF0.08608061
asS'Wrong'
p103
(lp104
F0.0
aF0.050925635
aF0.0
aF0.08975505
aF0.015381284
aF0.009726947
aF0.006927747
aF0.068032056
aF0.050297175
aF0.0
aF0.020295046
aF0.0956867
aF0.0
aF0.028539492
aF0.0073102023
aF0.044619177
aF0.0067566982
aF0.0
aF0.05284507
asS'Surprised'
p105
(lp106
F0.14635754
aF0.054994896
aF0.18156391
aF0.03637242
aF0.10813208
aF0.095771
aF0.830886
aF0.9083772
aF0.06282066
aF0.14685118
aF0.036555685
aF0.07999133
aF0.14614064
aF0.13995498
aF0.10904682
aF0.08713257
aF0.059127197
aF0.08806391
aF0.040531144
asS'supplier'
p107
(lp108
F0.0
aF0.021462662
aF0.0
aF0.06877059
aF0.012303889
aF0.0
aF0.020888075
aF0.018991439
aF0.02726212
aF0.0
aF0.01363683
aF0.0
aF0.0
aF0.0391241
aF0.0
aF0.0
aF0.0
aF0.0
aF0.08326821
asS'tribute'
p109
(lp110
F0.0
aF0.0029920454
aF0.2281507
aF0.005853433
aF0.0016104328
aF0.0
aF0.07965078
aF0.04347035
aF0.0
aF0.0
aF0.0
aF0.0
aF0.0
aF0.008408342
aF0.042230364
aF0.0
aF0.31796664
aF0.08977369
aF0.034768198
asS'America'
p111
(lp112
I0
aI0
aI0
aI0
aI0
aI0
aI0
aI0
aI0
aI0
aI0
aI0
aI0
aI0
aI0
aI0
aI0
aI0
aI0
asS'boost'
p113
(lp114
F0.0
aF0.08250831
aF0.0016670402
aF0.017685326
aF0.0038735531
aF0.012441599
aF0.015095088
aF0.08167166
aF0.017932829
aF0.0037955574
aF0.00460051
aF0.00029504657
aF0.05874877
aF0.031121494
aF0.0
aF0.021655653
aF0.028630273
aF0.0
aF0.006880932
asS'Former'
p115
(lp116
F0.011020577
aF0.0
aF0.02145736
aF0.0
aF0.08468309
aF0.112936355
aF0.018862182
aF0.05968111
aF0.0
aF0.0035182594
aF0.0
aF0.0
aF0.0
aF0.032152843
aF0.0139483195
aF0.0
aF0.046640765
aF0.00070052565
aF0.06893523
asS'satisfy'
p117
(lp118
F0.62508054
aF0.19853832
aF0.49720962
aF0.22434561
aF0.0
aF0.0
aF0.3195592
aF0.21993539
aF0.0
aF0.0
aF0.0
aF0.0
aF0.22190322
aF0.15264222
aF0.0
aF0.0
aF0.14121535
aF0.0
aF0.11684589
asS'hero'
p119
(lp120
F0.047623497
aF0.04474973
aF0.09629381
aF0.09802217
aF0.051143166
aF0.025055993
aF0.0
aF0.061257776
aF0.0
aF0.0
aF0.047757134
aF0.03526295
aF0.0
aF0.015875274
aF0.0
aF0.0
aF0.06626041
aF0.016043784
aF0.15664023
asS'degree'
p121
(lp122
F0.0
aF0.0
aF0.05490702
aF0.081175976
aF0.07579277
aF0.0
aF0.054343242
aF0.027987598
aF0.0
aF0.011690191
aF0.054586034
aF0.084119156
aF0.0
aF0.06174038
aF0.0
aF0.0
aF0.0
aF0.0
aF0.005079256
asS'festive'
p123
(lp124
F0.19824614
aF0.1711647
aF0.0
aF0.0
aF0.0
aF0.0
aF0.0
aF0.061127726
aF0.0
aF0.0
aF0.0
aF0.0
aF0.174262
aF0.0
aF0.0
aF0.0
aF0.0
aF0.0
aF0.0
asS'spunky'
p125
(lp126
F0.0
aF0.004442175
aF0.0
aF0.025701223
aF0.0
aF0.0
aF0.027676987
aF0.05009549
aF0.0
aF0.0
aF0.0
aF0.0
aF0.0
aF0.054370873
aF0.0
aF0.0
aF0.0
aF0.015918212
aF0.15074833
asS'victimized'
p127
(lp128
F0.0
aF0.0
aF0.02223311
aF0.012236215
aF0.061716408
aF0.022524072
aF0.0
aF0.015198712
aF0.027163956
aF0.0
aF0.10791076
aF0.06964403
aF0.0
aF0.000429
aF0.006343575
aF0.06588567
aF0.0
aF0.045460872
aF0.0
asS'misgiving'
p129
(lp130
F0.14041841
aF0.3136009
aF0.52278286
aF0.070340626
aF0.41194743
aF1.0
aF0.4801926
aF0.04985997
aF0.5887737
aF0.6087815
aF0.25829673
aF0.45132455
aF0.3319059
aF0.09949424
aF0.48812518
aF0.5140907
aF0.2573736
aF0.39312765
aF0.07792255
asS'reported'
p131
(lp132
F0.10234473
aF0.039387483
aF0.0058658286
aF0.037552625
aF0.08158439
aF0.030116588
aF0.061558224
aF0.09867625
aF0.0
aF0.0015647508
aF0.0065893326
aF0.04506296
aF0.029485889
aF0.0
aF0.018200206
aF0.012954608
aF0.0
aF0.0
aF0.0
asS'shouldn'
p133
(lp134
F0.0
aF0.0
aF0.0
aF0.0
aF0.0
aF0.0
aF0.0
aF0.0
aF0.0
aF0.0
aF0.0
aF0.0
aF0.0
aF0.0
aF0.0
aF0.0
aF0.0
aF0.0
aF0.0
asS'disastrous'
p135
(lp136
F0.06721417
aF0.041373517
aF0.03922046
aF0.0
aF0.058642447
aF0.0
aF0.015421821
aF0.12108137
aF0.03176066
aF0.01007314
aF0.047412004
aF0.031949162
aF0.0
aF0.041716516
aF0.022901008
aF0.02202894
aF0.01892315
aF0.036904413
aF0.036215466
asS'focused'
p137
(lp138
F0.053039186
aF0.053306248
aF0.0
aF0.000869
aF0.0
aF0.036024537
aF0.003991412
aF0.0
aF0.0
aF0.007813487
aF0.047329992
aF0.032391742
aF0.0
aF0.25244513
aF0.00650145
aF0.0
aF0.037050817
aF0.065748155
aF0.1632154
asS'Latvian'
p139
(lp140
F0.0
aF0.0
aF0.0
aF0.0
aF0.0
aF0.0
aF0.0
aF0.0
aF0.0
aF0.0
aF0.0
aF0.0
aF0.0
aF0.0
aF0.0
aF0.0
aF0.0
aF0.0
aF0.0
asS'fuck'
p141
(lp142
F0.015575805
aF0.031658016
aF0.00683112
aF0.03980735
aF0.07251139
aF0.06367721
aF0.09576514
aF0.02113718
aF0.03161741
aF0.0
aF0.061063867
aF0.086220056
aF0.0
aF0.02689911
aF0.032957062
aF0.07391303
aF0.02771403
aF0.061759926
aF0.028726296
asS'squirming'
p143
(lp144
F0.12893121
aF0.0
aF0.035976376
aF0.030596092
aF0.0
aF0.03898055
aF0.24548832
aF0.0825806
aF0.049622145
aF0.15074854
aF0.052459616
aF0.011148634
aF0.066954136
aF0.009781088
aF0.050275534
aF0.06314971
aF0.023714505
aF0.03258338
aF0.06682999
asS'strong'
p145
(lp146
F0.0
aF0.06603626
aF0.0036586863
aF0.045133762
aF0.068067156
aF0.0
aF0.0
aF0.07002505
aF0.1181206
aF0.0850873
aF0.015691126
aF0.08591717
aF0.017487202
aF0.18927237
aF0.0569241
aF0.10346205
aF0.077965625
aF0.013770739
aF0.0836448
asS'great'
p147
(lp148
F0.12132079
aF0.0
aF0.13105913
aF0.023051972
aF0.0
aF0.07613154
aF0.024239054
aF0.033623103
aF0.061035674
aF0.08993694
aF0.018464807
aF0.057076015
aF0.0313079
aF0.07827031
aF0.08459679
aF0.03920225
aF0.015618529
aF0.05233158
aF0.26393333
asS'distressed'
p149
(lp150
F0.0
aF0.0
aF0.0
aF0.0
aF0.120381184
aF0.25680685
aF0.0
aF0.0
aF0.122480005
aF0.21709643
aF0.11470346
aF0.19596379
aF0.0
aF0.0
aF0.36980975
aF0.08829827
aF0.0
aF0.3945244
aF0.0
asS'inspired'
p151
(lp152
F0.0
aF0.049556
aF0.14559838
aF0.024684854
aF0.0
aF0.02504807
aF0.05010699
aF0.059154578
aF0.02520824
aF0.034393307
aF0.047154568
aF0.046422467
aF0.06936099
aF0.078927636
aF0.0
aF0.042897765
aF0.04590614
aF0.07571688
aF0.052781567
asS'guilty'
p153
(lp154
F0.10682509
aF0.0
aF0.057444453
aF0.08456131
aF0.0
aF0.0
aF0.13910514
aF0.014034295
aF0.026973706
aF0.057105683
aF0.0
aF0.0
aF0.0
aF0.0
aF0.07385827
aF0.05933871
aF0.013606696
aF0.017287914
aF0.011084501
asS'reports'
p155
(lp156
F0.101689175
aF0.0567793
aF0.0
aF0.0
aF0.091407
aF0.029923681
aF0.026320335
aF0.08006672
aF0.0
aF0.001554728
aF0.005614223
aF0.044774316
aF0.029297022
aF0.0
aF0.018083626
aF0.014797514
aF0.0
aF0.0
aF0.0
asS'controversy'
p157
(lp158
F0.017545126
aF0.03807093
aF0.091222055
aF0.026143469
aF0.13863511
aF0.1276991
aF0.06337626
aF0.108027354
aF0.05759093
aF0.058908287
aF0.28137082
aF0.19251299
aF0.044880927
aF0.0995604
aF0.025207933
aF0.05157603
aF0.0052901255
aF0.07410886
aF0.009372845
asS'stressed'
p159
(lp160
F0.0
aF0.0
aF0.0
aF0.0
aF0.042473663
aF0.037710242
aF0.0
aF0.0
aF0.0
aF0.0
aF0.08318388
aF0.03698343
aF0.0
aF0.0
aF0.07692992
aF0.0
aF0.0
aF0.12455968
aF0.0
asS'intrigue'
p161
(lp162
F0.0
aF0.041722406
aF0.10008793
aF0.018135017
aF0.043575328
aF0.0
aF0.51608477
aF0.51636167
aF0.02645962
aF0.0
aF0.0
aF0.13252532
aF0.0
aF0.47048256
aF0.0
aF0.0
aF0.036045052
aF0.0
aF0.08772354
asS'Best'
p163
(lp164
F0.0
aF0.0
aF0.028378483
aF0.04089351
aF0.0
aF0.070127904
aF0.021254545
aF0.021591393
aF0.06562396
aF0.045520112
aF0.04319271
aF0.0
aF0.0
aF0.11134351
aF0.056013897
aF0.039318137
aF0.0
aF0.0148862535
aF0.22376919
asS'envious'
p165
(lp166
F0.0
aF0.0
aF0.0
aF0.0
aF0.06037975
aF0.06307965
aF0.0
aF0.0
aF0.21620122
aF0.1
aF0.026902996
aF0.0
aF0.0
aF0.02197412
aF0.0
aF0.0
aF0.047086276
aF0.0
aF0.0
asS'panicked'
p167
(lp168
F0.0
aF0.0
aF0.0
aF0.0
aF0.8164253
aF0.32783443
aF0.0
aF0.0
aF0.26883382
aF0.26020068
aF0.33853188
aF0.29486954
aF0.0
aF0.0
aF0.2433302
aF0.0
aF0.0
aF0.27855593
aF0.0
asS'love'
p169
(lp170
F0.31747976
aF0.14821059
aF0.30322003
aF0.1337353
aF0.13136688
aF0.010910176
aF0.030247865
aF0.044531155
aF0.16145986
aF0.1241066
aF0.2159118
aF0.1404627
aF0.00634949
aF0.2282246
aF0.12591286
aF0.03873538
aF0.2605011
aF0.22652683
aF1.0
asS'secure'
p171
(lp172
F0.023303976
aF0.0
aF0.0
aF0.14266011
aF0.0
aF0.0
aF0.0
aF0.0
aF0.0
aF0.0
aF0.0
aF0.0
aF0.056959398
aF0.09487831
aF0.0
aF0.0
aF0.0
aF0.0
aF0.0
asS'suddenly'
p173
(lp174
F0.18918829
aF0.0
aF0.039140724
aF0.0
aF0.0682771
aF0.052324105
aF0.17658941
aF0.1609528
aF0.0
aF0.0
aF0.120223306
aF0.03881338
aF0.053365707
aF0.0
aF0.000299066
aF0.195723
aF0.0
aF0.104732916
aF0.063171044
asS'cowardly'
p175
(lp176
F0.0
aF0.0
aF0.0
aF0.0
aF0.22603077
aF0.114231475
aF0.0
aF0.0
aF0.0
aF0.058168504
aF0.10557303
aF0.0
aF0.0
aF0.0
aF0.0
aF0.11733556
aF0.0
aF0.0
aF0.0
asS'confession'
p177
(lp178
F0.07288715
aF0.0
aF0.0784941
aF0.19953638
aF0.02512584
aF0.1242423
aF0.07797313
aF0.11404594
aF0.016408332
aF0.081036165
aF0.041598868
aF0.009624691
aF0.0
aF0.0
aF0.04750005
aF0.0
aF0.023101555
aF0.099243626
aF0.06236434
asS'pessimistically'
p179
(lp180
F0.0
aF0.0
aF0.0
aF0.0
aF0.22071912
aF0.31880794
aF0.0
aF0.0
aF0.13710237
aF0.12657477
aF0.06954687
aF0.08787415
aF0.0
aF0.0
aF0.34631146
aF0.09308122
aF0.0
aF0.06890711
aF0.0
asS'Penalty'
p181
(lp182
F0.06245955
aF0.011982064
aF0.0
aF0.0
aF0.020877888
aF0.05521786
aF0.0
aF0.019536454
aF0.001547293
aF0.008010241
aF0.0
aF0.01580434
aF0.02699333
aF0.012936362
aF0.02409202
aF0.06819231
aF0.0
aF0.0
aF0.0
asS'Health'
p183
(lp184
F0.055535495
aF0.04562913
aF0.0
aF0.015773827
aF0.013762715
aF0.0
aF0.028441843
aF0.036619633
aF0.029545197
aF0.034436468
aF0.0007495014
aF0.020840736
aF0.010038413
aF0.049225394
aF0.0076422743
aF0.020054089
aF0.012977194
aF0.00048402057
aF0.0
asS'paralyzed'
p185
(lp186
F0.0
aF0.0
aF0.0
aF0.0
aF0.15548794
aF0.0
aF0.0
aF0.0
aF0.19518435
aF0.1604348
aF0.08717601
aF0.05626601
aF0.0
aF0.0
aF0.07392545
aF0.075135134
aF0.0
aF0.04464645
aF0.0
asS'mortify'
p187
(lp188
F0.0
aF0.0
aF0.0
aF0.0
aF0.47996946
aF0.27030593
aF0.0
aF0.0
aF0.53276868
aF0.48133473
aF0.11839322
aF0.15350834
aF0.0
aF0.0
aF0.54639844
aF0.15371025
aF0.0
aF0.3396121
aF0.0
asS'crisis'
p189
(lp190
F0.0
aF0.034045596
aF0.06705151
aF0.0
aF0.13096929
aF0.009665385
aF0.0
aF0.0
aF0.0
aF0.0
aF0.07730996
aF0.109534666
aF0.0
aF0.04072221
aF0.050505985
aF0.018167278
aF0.044730574
aF0.16053021
aF0.0
asS'stingy'
p191
(lp192
F0.0
aF0.003639452
aF0.0
aF0.04918611
aF0.07669564
aF0.014719232
aF0.0
aF0.0
aF0.0
aF0.036536805
aF0.039208204
aF0.06942591
aF0.0
aF0.08172386
aF0.0
aF0.0
aF0.00129159
aF0.018776327
aF0.006471345
asS'Europe'
p193
(lp194
F0.0
aF0.0
aF0.0
aF0.0
aF0.0
aF0.0
aF0.0
aF0.0
aF0.0
aF0.0
aF0.0
aF0.0
aF0.0
aF0.0
aF0.0
aF0.0
aF0.0
aF0.0
aF0.0
asS'working'
p195
(lp196
F0.0
aF0.029307755
aF0.010324074
aF0.05339395
aF0.0034044401
aF0.10124882
aF0.04107158
aF0.005994254
aF0.02026612
aF0.027447788
aF0.042949706
aF0.0015386621
aF0.006332809
aF0.0742708
aF0.0
aF0.020650811
aF0.0
aF0.0
aF0.034104336
asS'positive'
p197
(lp198
F0.05267037
aF0.08696412
aF0.023570972
aF0.07956045
aF0.03453878
aF0.016219355
aF0.0
aF0.07343206
aF0.0
aF0.0
aF0.0
aF0.04461715
aF0.066723876
aF0.038831633
aF0.03909025
aF0.09284039
aF0.049709707
aF0.0
aF0.046245288
asS'angry'
p199
(lp200
F0.0
aF0.0
aF0.0
aF0.05755322
aF0.12362734
aF0.0
aF0.02330317
aF0.13468796
aF0.0
aF0.05929399
aF0.32588255
aF0.8021816
aF0.0
aF0.037392918
aF0.0
aF0.08905919
aF0.0
aF0.0873307
aF0.047068
asS'balled'
p201
(lp202
F0.0241448
aF0.0013383834
aF0.0
aF0.010606946
aF0.0026716574
aF0.005377083
aF0.043386407
aF0.0124688195
aF0.024714625
aF0.030331854
aF0.021448523
aF0.0010619992
aF0.08014362
aF0.0133409705
aF0.0046978677
aF0.012382109
aF0.0986799
aF0.0
aF0.024580128
asS'insult'
p203
(lp204
F0.0
aF0.0
aF0.009893566
aF0.053479638
aF0.0
aF0.0
aF0.0
aF0.029412165
aF0.0
aF0.0
aF0.0
aF0.03597383
aF0.010671783
aF0.0
aF0.0
aF0.015076729
aF0.016419573
aF0.0
aF0.017234005
asS'https'
p205
(lp206
F0.0
aF0.0
aF0.0
aF0.0
aF0.0
aF0.0
aF0.0
aF0.0
aF0.0
aF0.0
aF0.0
aF0.0
aF0.0
aF0.0
aF0.0
aF0.0
aF0.0
aF0.0
aF0.0
asS'obstinate'
p207
(lp208
F0.0
aF0.06752604
aF0.017820276
aF0.0
aF0.0
aF0.0
aF0.0
aF0.0
aF0.0
aF0.0
aF0.0
aF0.0
aF0.0
aF0.0
aF0.0
aF0.0
aF0.0
aF0.0
aF0.0
asS'tell'
p209
(lp210
F0.0011371409
aF0.019192707
aF1.3857057e-05
aF0.06609046
aF0.11006482
aF0.0
aF0.040920634
aF0.1228438
aF0.0
aF0.0
aF0.0
aF0.0029626766
aF0.0
aF0.0
aF0.0
aF0.0
aF0.0
aF0.0
aF0.08807136
asS'wicked'
p211
(lp212
F0.000932
aF0.0
aF0.0
aF0.0
aF0.000726
aF0.030329073
aF0.007392058
aF0.035153467
aF0.06998109
aF0.093176946
aF0.14761019
aF0.046093524
aF0.042169187
aF0.001868525
aF0.033935282
aF0.0790521
aF0.0
aF0.0
aF0.01770084
asS'clever'
p213
(lp214
F0.0
aF0.03206687
aF0.047525406
aF0.011557533
aF0.0
aF0.0
aF0.049801726
aF0.14147651
aF0.0
aF0.0
aF0.0
aF0.0
aF0.0
aF0.072593644
aF0.0
aF0.0
aF0.0
aF0.0
aF0.047794055
asS'wary'
p215
(lp216
F0.0
aF0.09336627
aF0.038795568
aF0.062402885
aF0.3784325
aF0.13890912
aF0.019992072
aF0.056870785
aF0.085611
aF0.0
aF0.0
aF0.13078326
aF0.059861716
aF0.12113274
aF0.0
aF0.044874195
aF0.0
aF0.0
aF0.009246589
asS'successful'
p217
(lp218
F0.020349842
aF0.09659823
aF0.028429244
aF0.07477619
aF0.0
aF0.03256295
aF0.0
aF0.054632846
aF0.0419668
aF0.023774473
aF0.0
aF0.0
aF0.0
aF0.048597865
aF0.051422473
aF0.06567131
aF0.0
aF0.024873313
aF0.04589679
asS'tennis'
p219
(lp220
F0.0
aF0.0073029855
aF0.0
aF0.008507112
aF0.01832425
aF0.0
aF0.008330751
aF0.0
aF0.0020955359
aF0.01777779
aF0.064549364
aF0.02467961
aF0.008101636
aF0.063124545
aF0.015034008
aF0.0
aF0.0
aF0.0
aF0.067166954
asS'company'
p221
(lp222
F0.011980151
aF0.048570402
aF0.0
aF0.011918382
aF0.0
aF0.008901336
aF0.0
aF0.03898124
aF0.0034295581
aF0.0
aF0.003556401
aF0.0
aF0.022688547
aF0.120331466
aF0.06038026
aF0.045028027
aF0.0
aF0.004288026
aF0.0
asS'repentance'
p223
(lp224
F0.15142557
aF0.025512854
aF0.13610429
aF0.2037338
aF0.0
aF0.12209828
aF0.058209278
aF0.033512954
aF0.12661725
aF0.13204496
aF0.11728032
aF0.16138764
aF0.0
aF0.021982852
aF0.15843876
aF0.05973649
aF0.003393981
aF0.22068039
aF0.1513898
asS'hurt'
p225
(lp226
F0.0
aF0.0
aF0.0
aF0.0
aF0.22711204
aF0.08383386
aF0.0
aF0.0
aF0.053023085
aF0.08899334
aF0.077163756
aF0.1517719
aF0.0
aF0.0
aF0.14869556
aF0.067887954
aF0.0
aF0.13247858
aF0.0
asS'grief'
p227
(lp228
F0.3529951
aF0.12911074
aF0.29674992
aF0.03373591
aF0.20203881
aF0.23772167
aF0.32189748
aF0.08177853
aF0.297428
aF0.32860878
aF0.46263346
aF0.48467416
aF0.07418213
aF0.03463469
aF1.0
aF0.1645311
aF0.13579692
aF1.0
aF0.22652683
asS'Not'
p229
(lp230
F0.023980502
aF0.019887855
aF0.03965067
aF0.0017041058
aF0.042507067
aF0.0
aF0.019259255
aF0.04450113
aF0.0
aF0.0
aF0.018138902
aF0.0026304335
aF0.0
aF0.049929567
aF0.00905214
aF0.014784771
aF0.006597582
aF0.01196529
aF0.0022144853
asS'frenzy'
p231
(lp232
F0.0
aF0.0
aF0.0
aF0.0
aF0.034606658
aF0.0955703
aF0.0
aF0.0
aF0.35536713
aF0.33040909
aF0.6259511
aF0.31495263
aF0.0
aF0.0
aF0.083997115
aF0.0
aF0.0
aF0.0
aF0.0
asS'ashamed'
p233
(lp234
F0.12805387
aF0.0
aF0.043102648
aF0.0
aF0.042244617
aF0.039077517
aF0.13761386
aF0.051697336
aF0.20128264
aF0.053516954
aF0.04713353
aF0.02419608
aF0.02056015
aF0.0
aF0.12883638
aF0.0
aF0.03925957
aF0.054187
aF0.030608824
asS'excellent'
p235
(lp236
F0.0
aF0.0
aF0.09864563
aF0.0
aF0.0
aF0.0
aF0.0
aF0.0
aF0.0
aF0.0
aF0.0
aF0.0
aF0.0
aF0.0
aF0.0
aF0.0
aF0.09870468
aF0.0
aF0.047108468
asS'99'
p237
(lp238
I0
aI0
aI0
aI0
aI0
aI0
aI0
aI0
aI0
aI0
aI0
aI0
aI0
aI0
aI0
aI0
aI0
aI0
aI0
asS'glad'
p239
(lp240
F0.06097923
aF0.0997742
aF0.12565641
aF0.0
aF0.026039502
aF0.029777389
aF0.18368903
aF0.22921842
aF0.0
aF0.0
aF0.0
aF0.017241588
aF0.029101187
aF0.103114724
aF0.087247655
aF0.088784106
aF0.0
aF0.000349
aF0.09732936
asS'annoy'
p241
(lp242
F0.0
aF0.0
aF0.0
aF0.049816087
aF0.0
aF0.0
aF0.0
aF0.0
aF0.0
aF0.005717589
aF0.0
aF0.11370018
aF0.0
aF0.0
aF0.0
aF0.0
aF0.0
aF0.0
aF0.0
asS'1980s'
p243
(lp244
I0
aI0
aI0
aI0
aI0
aI0
aI0
aI0
aI0
aI0
aI0
aI0
aI0
aI0
aI0
aI0
aI0
aI0
aI0
asS'te'
p245
(lp246
I0
aI0
aI0
aI0
aI0
aI0
aI0
aI0
aI0
aI0
aI0
aI0
aI0
aI0
aI0
aI0
aI0
aI0
aI0
asS'announcing'
p247
(lp248
F0.055142283
aF0.035351496
aF0.010368046
aF0.15329984
aF0.07010767
aF0.084498525
aF0.014135586
aF0.2396285
aF0.0
aF0.016590869
aF0.0
aF0.024859022
aF0.22142269
aF0.0
aF0.045614902
aF0.036964137
aF0.0
aF0.062733404
aF0.0
asS'inflamed'
p249
(lp250
F0.0
aF0.0
aF0.0
aF0.028526157
aF0.003004244
aF0.003857526
aF0.0
aF0.0
aF0.034157205
aF0.08651466
aF0.1997725
aF0.19348554
aF0.0
aF0.0
aF0.0
aF0.0
aF0.0
aF0.0
aF0.0
asS'inferior'
p251
(lp252
F0.0
aF0.0
aF0.0
aF0.0
aF0.023544582
aF0.10006608
aF0.0
aF0.0
aF0.11051226
aF0.07446054
aF0.0
aF0.0
aF0.0
aF0.0
aF0.003412
aF0.033168994
aF0.0
aF0.0
aF0.0
asS'following'
p253
(lp254
F0.004307614
aF0.0014232848
aF0.042519253
aF0.54868305
aF0.022020843
aF0.029491356
aF0.057440903
aF0.02712018
aF0.029590063
aF0.024634417
aF0.05936621
aF0.015672252
aF0.05047354
aF0.016442012
aF0.0
aF0.024531353
aF0.026207848
aF0.0
aF0.017475331
asS'Doping'
p255
(lp256
F0.0
aF0.0
aF0.0
aF0.0
aF0.0
aF0.0
aF0.0
aF0.0
aF0.0
aF0.0
aF0.0
aF0.0
aF0.0
aF0.0
aF0.0
aF0.0
aF0.0
aF0.0
aF0.0
asS'star'
p257
(lp258
F0.0
aF0.0
aF0.031122042
aF0.08209403
aF0.015091696
aF0.0
aF0.0
aF0.06582961
aF0.016008943
aF0.028784852
aF0.0
aF0.0
aF0.0
aF0.004747548
aF0.0
aF0.054059368
aF0.019589737
aF0.0
aF0.124175705
asS'pick'
p259
(lp260
F0.0
aF0.02468356
aF0.044927668
aF0.10411111
aF0.0
aF0.0007418846
aF0.007845931
aF0.030570278
aF0.033532917
aF0.038150925
aF0.021521918
aF0.008447576
aF0.00208338
aF0.022598244
aF0.023841716
aF0.029329732
aF0.0
aF0.0
aF0.12594396
asS'crazy'
p261
(lp262
F0.10229838
aF0.07259253
aF0.015112193
aF0.0765489
aF0.057819586
aF0.0
aF0.032694146
aF0.0
aF0.0
aF0.0
aF0.23173127
aF0.08395216
aF0.039190143
aF0.03341192
aF0.0
aF0.081289805
aF0.019476552
aF0.051854998
aF0.17566508
asS'ordeal'
p263
(lp264
F0.031658918
aF0.042890593
aF0.028198775
aF0.08937496
aF0.32966644
aF0.06385889
aF0.07775387
aF0.031512473
aF0.004292899
aF0.0
aF0.0
aF0.0
aF0.027802011
aF0.0
aF0.45214558
aF0.0
aF0.0
aF0.62692625
aF0.0
asS'atrocious'
p265
(lp266
F0.026302315
aF0.05162908
aF0.024008377
aF0.036933023
aF0.0
aF0.0188548
aF0.031533822
aF0.0
aF0.10852524
aF0.0
aF0.016692683
aF0.0
aF0.0
aF0.031211708
aF0.015213291
aF0.031235667
aF0.017208144
aF0.0
aF0.0
asS'Maria.'
p267
(lp268
F0.0
aF0.0
aF0.0
aF0.0
aF0.0
aF0.0
aF0.0
aF0.0
aF0.0
aF0.0
aF0.0
aF0.0
aF0.0
aF0.0
aF0.0
aF0.0
aF0.0
aF0.0
aF0.0
asS'joyous'
p269
(lp270
F0.9043999
aF0.2872566
aF0.061649054
aF0.06504518
aF0.0
aF0.0
aF0.19489177
aF0.14781187
aF0.0
aF0.0
aF0.0
aF0.0
aF0.25630093
aF0.0
aF0.0
aF0.0
aF0.0
aF0.0
aF0.015093608
asS'Media'
p271
(lp272
F0.0
aF0.0
aF0.0
aF0.0
aF0.0
aF0.0
aF0.0
aF0.0
aF0.0
aF0.0
aF0.0
aF0.0
aF0.0
aF0.0
aF0.0
aF0.0
aF0.0
aF0.0
aF0.0
asS'awesome'
p273
(lp274
F0.0684252
aF0.0
aF0.17046964
aF0.0
aF0.0
aF0.0
aF0.28141248
aF0.12614936
aF0.0
aF0.0
aF0.0
aF0.0
aF0.026509909
aF0.060781576
aF0.0
aF0.0
aF0.13519274
aF0.0
aF0.09332713
asS'share'
p275
(lp276
F0.16872653
aF0.07430934
aF0.14978784
aF0.15225369
aF0.047587696
aF0.0983667
aF0.12079289
aF0.08083953
aF0.14996052
aF0.108203635
aF0.013122908
aF0.011707822
aF0.14880353
aF0.25462872
aF0.14601554
aF0.041706596
aF0.06828671
aF0.10986423
aF0.15041386
asS'confused'
p277
(lp278
F0.057890616
aF0.020348968
aF0.03783244
aF0.10083712
aF0.09416496
aF0.12306002
aF0.177351
aF0.206676
aF0.06988937
aF0.082815275
aF0.084157065
aF0.11954641
aF0.034408104
aF0.026927713
aF0.13438039
aF0.026173297
aF0.046738967
aF0.11185766
aF0.060795236
asS'terrible'
p279
(lp280
F0.07287147
aF0.012266142
aF0.0
aF0.0
aF0.14800893
aF0.053392917
aF0.044061985
aF0.07500322
aF0.0
aF0.010771592
aF0.20579247
aF0.1017002
aF0.0
aF0.026440002
aF0.15925787
aF0.025812954
aF0.008029659
aF0.22419778
aF0.049530398
asS'Sharapova'
p281
(lp282
F0.0
aF0.0
aF0.0
aF0.0
aF0.0
aF0.0
aF0.0
aF0.0
aF0.0
aF0.0
aF0.0
aF0.0
aF0.0
aF0.0
aF0.0
aF0.0
aF0.0
aF0.0
aF0.0
asS'mayhem'
p283
(lp284
F0.12633917
aF0.0
aF0.0
aF0.06637027
aF0.059029303
aF0.061619084
aF0.1415946
aF0.0
aF0.095585525
aF0.08101276
aF0.17668235
aF0.04549213
aF0.0
aF0.028318344
aF0.116045
aF0.0
aF0.0
aF0.12983382
aF0.012305445
asS'dropped'
p285
(lp286
F0.015559716
aF0.012540806
aF0.017023217
aF0.07850249
aF0.0
aF0.016434776
aF0.050262976
aF0.074062474
aF0.062196232
aF0.08792313
aF0.0
aF0.0
aF0.013180864
aF0.00829967
aF0.0
aF0.051637813
aF0.0
aF0.006305034
aF0.009993425
asS'want'
p287
(lp288
F0.016654903
aF0.0
aF0.05055578
aF0.0
aF0.14529957
aF0.05010178
aF0.0
aF0.0023680814
aF0.011677681
aF0.0
aF0.0
aF0.0
aF0.0
aF0.2216502
aF0.0
aF0.058409445
aF0.06289054
aF0.0
aF0.29668278
asS'provoke'
p289
(lp290
F0.0
aF0.0
aF0.10873237
aF0.0
aF0.23202507
aF0.103545144
aF0.14161405
aF0.209622
aF0.13913976
aF0.22555819
aF0.22532687
aF0.3236271
aF0.123055995
aF0.30289492
aF0.011876849
aF0.12956305
aF0.0
aF0.015455002
aF0.0
asS'rape'
p291
(lp292
F0.012805101
aF0.02780785
aF0.044847645
aF0.08187278
aF0.061267663
aF0.027848238
aF0.0
aF0.0
aF0.0
aF0.0
aF0.050914876
aF0.0
aF0.014988152
aF0.014389089
aF0.0
aF0.01828814
aF0.020044673
aF0.026544675
aF0.048954237
asS'indifferent'
p293
(lp294
F0.0
aF0.010314168
aF0.031042691
aF0.07108407
aF0.032190766
aF0.0
aF0.07245484
aF0.0
aF0.017352218
aF0.13894945
aF0.007210514
aF0.0
aF0.0
aF0.17681174
aF0.0
aF0.13649875
aF0.052969683
aF0.0
aF0.06743014
asS'daring'
p295
(lp296
F0.038407553
aF0.048016537
aF0.029028283
aF0.0
aF0.0
aF0.11354641
aF0.027601512
aF0.1870122
aF0.027743064
aF0.037863832
aF0.0
aF0.039070737
aF0.08882592
aF0.07798639
aF0.047597285
aF0.017824456
aF0.000727
aF0.0
aF0.00607125
asS'fuming'
p297
(lp298
F0.0
aF0.0
aF0.041915063
aF0.0
aF0.02118197
aF0.012728469
aF0.054215536
aF0.0
aF0.021946128
aF0.06334356
aF0.084003665
aF0.10954374
aF0.0
aF0.0
aF0.001224083
aF0.087182984
aF0.0
aF0.014853603
aF0.0
asS'lame'
p299
(lp300
F0.0
aF0.000525
aF0.0
aF0.035629395
aF0.0
aF0.031937074
aF0.020035988
aF0.012465531
aF0.0
aF0.014962884
aF0.0
aF0.0
aF0.0
aF0.034632552
aF0.0
aF0.0
aF0.0
aF0.0
aF0.0
asS'agony'
p301
(lp302
F0.46689683
aF0.079289764
aF0.2942131
aF0.0
aF0.21092547
aF0.31608224
aF0.466811
aF0.0854218
aF0.4544941
aF0.42384332
aF0.30395073
aF0.25231627
aF0.18952632
aF0.0
aF0.6329527
aF0.17976588
aF0.033831414
aF0.6516193
aF0.17249714
asS'brand'
p303
(lp304
F0.0
aF0.007125859
aF0.0009807558
aF0.017205182
aF0.05365133
aF0.04264085
aF0.006279844
aF0.0
aF0.05797577
aF0.049768426
aF0.02154503
aF0.0
aF0.013929894
aF0.0
aF7.591853e-05
aF0.05363489
aF0.0
aF0.02898503
aF0.0
asS'damage'
p305
(lp306
F0.014221655
aF0.03778972
aF0.06646785
aF0.003493442
aF0.07809523
aF0.019212496
aF0.0
aF0.0
aF0.017970908
aF0.0
aF0.10261711
aF0.17154427
aF0.0
aF0.04204136
aF0.26716536
aF0.009555419
aF0.030531988
aF0.33128407
aF0.03247407
asS'1'
p307
(lp308
I0
aI0
aI0
aI0
aI0
aI0
aI0
aI0
aI0
aI0
aI0
aI0
aI0
aI0
aI0
aI0
aI0
aI0
aI0
asS'amazing'
p309
(lp310
F0.030492933
aF0.014278553
aF0.24197166
aF0.0
aF0.0
aF0.0
aF0.41527236
aF0.28415364
aF0.0
aF0.0
aF0.0
aF0.0
aF0.0
aF0.0
aF0.0
aF0.0
aF0.12053027
aF0.0
aF0.14491023
asS'Rebel'
p311
(lp312
F0.017834127
aF0.026822422
aF0.012424403
aF0.053884447
aF0.060286455
aF0.10337496
aF0.0
aF0.023241965
aF0.0
aF0.0
aF0.1086335
aF0.017616522
aF0.0
aF0.006104012
aF0.0
aF0.0
aF0.0
aF0.0
aF0.009805246
asS'aching'
p313
(lp314
F0.15734062
aF0.0
aF0.00497391
aF0.0
aF0.004965214
aF0.03416994
aF0.09185345
aF0.0
aF0.004032156
aF0.075362496
aF0.042892974
aF0.053575244
aF0.04003251
aF0.26199076
aF0.0
aF0.0
aF0.0
aF0.1968135
aF0.074520916
asS'attract '
p315
(lp316
F0.0
aF0.0
aF0.46679905
aF0.047294084
aF0.0
aF0.0
aF0.117222115
aF0.11024554
aF0.0
aF0.0
aF0.0
aF0.0
aF0.0
aF0.23240817
aF0.0
aF0.0
aF0.10254565
aF0.0
aF0.45123312
asS'profiting'
p317
(lp318
F0.018916965
aF0.0423008
aF0.06764851
aF0.08794319
aF0.034264907
aF0.07144417
aF0.091676235
aF0.0864344
aF0.0039100843
aF0.018622896
aF0.0
aF0.0066757067
aF0.09907745
aF0.09335314
aF0.0
aF0.0
aF0.013705522
aF0.040305715
aF0.039671186
asS'banned'
p319
(lp320
F0.1291275
aF0.050597798
aF0.033688024
aF0.10143838
aF0.035245348
aF0.0
aF0.046662748
aF0.004605424
aF0.07124085
aF0.067894526
aF0.01481903
aF0.0
aF0.0
aF0.0
aF0.09893118
aF0.24784242
aF0.031358864
aF0.03685327
aF0.03118609
asS'defeat'
p321
(lp322
F0.07641327
aF0.002545981
aF0.039250728
aF0.12140408
aF0.013902922
aF0.046042528
aF0.08811281
aF0.116069056
aF0.013491737
aF0.14658424
aF0.0
aF0.04948235
aF0.0
aF0.00818383
aF0.10929388
aF0.11620733
aF0.0
aF0.077683836
aF0.03281589
asS'BNP'
p323
(lp324
F0.0
aF0.0
aF0.0
aF0.0
aF0.0
aF0.0
aF0.0
aF0.0
aF0.0
aF0.0
aF0.0
aF0.0
aF0.0
aF0.0
aF0.0
aF0.0
aF0.0
aF0.0
aF0.0
asS'okay'
p325
(lp326
F0.010492574
aF0.0
aF0.01957845
aF0.0
aF0.035247505
aF0.020113599
aF0.020113599
aF0.0
aF0.125993
aF0.08006135
aF0.12750682
aF0.06333318
aF0.001652922
aF0.0
aF0.09288084
aF0.06741076
aF0.007762079
aF0.033113237
aF0.0
asS'flustered'
p327
(lp328
F0.0
aF0.0
aF0.0
aF0.0
aF0.06442677
aF0.020454613
aF0.0
aF0.0
aF0.003773317
aF0.01256
aF0.034957517
aF0.09082994
aF0.0
aF0.0
aF0.0
aF0.0
aF0.0
aF0.0
aF0.0
asS'disgraced'
p329
(lp330
F0.0
aF0.0
aF0.060185067
aF0.0
aF0.011282723
aF0.029995054
aF0.0291253
aF0.074371934
aF0.051429622
aF0.13813595
aF0.0
aF0.0
aF0.0
aF0.006868475
aF0.0
aF0.09034696
aF0.053510204
aF0.04849917
aF0.0016305454
asS'sacrifice'
p331
(lp332
F0.07207113
aF0.052117422
aF0.0804545
aF0.083351195
aF0.0
aF0.0
aF0.0
aF0.0
aF0.0
aF0.0
aF0.005740757
aF0.007143722
aF0.0
aF0.064367026
aF0.04291627
aF0.0
aF0.09058746
aF0.122907735
aF0.12202159
asS'disgusted'
p333
(lp334
F0.0
aF0.0
aF0.0
aF0.0
aF0.0
aF0.0
aF0.0
aF0.0
aF0.31646335
aF1.0
aF0.160269
aF0.24859838
aF0.0
aF0.0
aF0.0
aF0.0
aF0.0
aF0.0
aF0.0
asS'mad'
p335
(lp336
F0.08678661
aF0.0
aF0.009382271
aF0.003974971
aF0.07552279
aF0.0
aF0.0
aF0.0
aF0.015195206
aF0.027601581
aF0.22603314
aF0.12747028
aF0.045476884
aF0.019478355
aF0.0
aF0.0
aF0.0
aF0.0
aF0.056705527
asS'enthusiastically '
p337
(lp338
F0.32923248
aF0.40564757
aF0.1347467
aF0.08963739
aF0.0
aF0.0
aF0.039004583
aF0.014045783
aF0.024503943
aF0.057753436
aF0.048996914
aF0.05002144
aF0.058969196
aF0.0
aF0.0
aF0.035047267
aF0.054469906
aF0.063031055
aF0.03469921
asS'bankrupt'
p339
(lp340
F0.021935953
aF0.016252484
aF0.032933384
aF0.018458
aF0.032401178
aF0.0
aF0.01696888
aF0.031044865
aF0.04293835
aF0.024086654
aF0.0
aF0.060824685
aF0.0
aF0.06995637
aF0.007013341
aF0.012408257
aF0.0
aF0.005144554
aF0.00906769
asS'complacent'
p341
(lp342
F0.0
aF0.1952661
aF0.0567
aF0.07136614
aF0.062037762
aF0.0797265
aF0.0
aF0.1068106
aF0.0
aF0.0
aF0.0
aF0.0
aF0.0
aF0.038115513
aF0.0
aF0.0
aF0.04576797
aF0.0
aF0.0
asS'awkward'
p343
(lp344
F0.014128924
aF0.0
aF0.08635003
aF0.13584557
aF0.018022174
aF0.050217148
aF0.0
aF0.09734695
aF0.020332841
aF0.0
aF0.0
aF0.005518438
aF0.052001905
aF0.057896193
aF0.058097947
aF0.000103
aF0.0
aF0.022329247
aF0.11110162
asS'sorrowful'
p345
(lp346
F0.05296804
aF0.04085921
aF0.0
aF0.003315099
aF0.026303677
aF0.052944787
aF0.18255398
aF0.05838182
aF0.0
aF0.08645501
aF0.027224652
aF0.003915888
aF0.041296937
aF0.023803014
aF0.7862376
aF0.029485343
aF0.020581163
aF0.301511
aF0.001967388
asS'appreciate'
p347
(lp348
F0.075808495
aF0.0
aF0.27030075
aF0.06111081
aF0.021460755
aF0.12300578
aF0.14774823
aF0.15975747
aF0.0
aF0.0
aF0.0
aF0.0
aF0.0
aF0.14636952
aF0.0
aF0.060434442
aF0.51863545
aF0.0
aF0.28909928
asS'hailed'
p349
(lp350
F0.12474957
aF0.15921296
aF0.17105421
aF0.10432242
aF0.006558199
aF0.09540322
aF0.08981485
aF0.188162
aF0.019236358
aF0.013335206
aF0.049796488
aF0.086669154
aF0.11572936
aF0.007531109
aF0.062159114
aF0.13308984
aF0.005415394
aF0.00270434
aF0.0
asS'ultimate'
p351
(lp352
F0.12679154
aF0.0
aF0.0
aF0.2530642
aF0.07528055
aF0.014954111
aF0.0
aF0.017682374
aF0.0
aF0.013255874
aF0.08674275
aF0.019054916
aF0.013551583
aF0.02933669
aF0.008909641
aF0.013825532
aF0.0
aF0.0
aF0.114173055
asS'furious'
p353
(lp354
F0.0
aF0.0
aF0.0
aF0.0
aF0.08635544
aF0.0
aF0.0
aF0.0
aF0.11070825
aF0.16782655
aF0.8834104
aF0.34919888
aF0.0
aF0.0
aF0.0
aF0.13370858
aF0.0
aF0.0
aF0.0
asS'Plus'
p355
(lp356
I0
aI0
aI0
aI0
aI0
aI0
aI0
aI0
aI0
aI0
aI0
aI0
aI0
aI0
aI0
aI0
aI0
aI0
aI0
asS'looking'
p357
(lp358
F0.019404322
aF0.02477384
aF0.31832072
aF0.027594382
aF0.020937843
aF0.049081996
aF0.1245272
aF0.09185374
aF0.089888066
aF0.052145366
aF0.03410049
aF0.021409119
aF0.11756131
aF0.15091076
aF0.030476177
aF0.0
aF0.023681618
aF0.041559786
aF0.0744459
asS'athletes'
p359
(lp360
F0.003569409
aF0.051253166
aF0.100892365
aF0.07919078
aF0.009157454
aF0.0030753
aF0.067646444
aF0.0
aF0.020194406
aF0.0
aF0.0
aF0.0
aF0.086970724
aF0.009686563
aF0.0
aF0.002427566
aF0.0
aF0.0
aF0.0
asS'cute'
p361
(lp362
F0.0
aF0.008157455
aF0.0
aF0.0
aF0.0
aF0.0
aF0.037523836
aF0.042712327
aF0.0
aF0.0
aF0.0
aF0.0
aF0.0
aF0.110328026
aF0.009554966
aF0.0
aF0.0
aF0.0
aF0.11169839
asS'over'
p363
(lp364
F0.0
aF0.0
aF0.0
aF0.0349126
aF0.0412798
aF0.040098
aF0.0
aF0.0
aF0.0
aF0.0
aF0.0
aF0.0
aF0.0
aF0.0
aF0.0310885
aF0.6109545
aF0.0
aF0.0438871
aF0.0
asS'shaky'
p365
(lp366
F0.0
aF0.0
aF0.0
aF0.0
aF0.0751376
aF0.07922235
aF0.0
aF0.0
aF0.010405741
aF0.0
aF0.0
aF0.0
aF0.0
aF0.0
aF0.0
aF0.0
aF0.0
aF0.0
aF0.0
asS'satisfied'
p367
(lp368
F0.16082326
aF0.07511418
aF0.112445086
aF0.08487801
aF0.0
aF0.0
aF0.12090073
aF0.16522719
aF0.0
aF0.0
aF0.0
aF0.0
aF0.077408105
aF0.18507107
aF0.0
aF0.0
aF0.05595889
aF0.0
aF0.04910862
asS'doubtful'
p369
(lp370
F0.0
aF0.013476598
aF0.01571819
aF0.043066744
aF0.0
aF0.083987616
aF0.062654376
aF0.0
aF0.0
aF0.019739551
aF0.024630088
aF0.0
aF0.071222425
aF0.0
aF0.035299037
aF0.040017296
aF0.06393153
aF0.0
aF0.0
asS'playful'
p371
(lp372
F0.035045046
aF0.064633116
aF0.020066226
aF0.0
aF0.0
aF0.0
aF0.045151174
aF0.047059286
aF0.011297409
aF0.018274846
aF0.0
aF0.0
aF0.006644095
aF0.018525055
aF0.000211
aF0.0
aF0.051898714
aF0.0
aF0.07338634
asS'wronged'
p373
(lp374
F0.0
aF0.018592415
aF0.043406896
aF0.0
aF0.008862253
aF0.017780421
aF0.037762765
aF0.039539367
aF0.11819005
aF0.0
aF0.06315625
aF0.07228017
aF0.0
aF0.08285127
aF0.0942218
aF0.049916256
aF0.017894505
aF0.08095208
aF0.011734838
asS'including'
p375
(lp376
F0.0
aF0.014605751
aF0.0
aF0.025053492
aF0.011411926
aF0.03252181
aF0.01911962
aF0.018081632
aF0.01690932
aF0.023306007
aF0.032750685
aF0.03586369
aF0.025470182
aF0.011688438
aF0.034788173
aF0.0
aF0.02234693
aF0.015386072
aF0.020936461
asS'committed'
p377
(lp378
F0.0
aF0.041306086
aF0.089799054
aF0.102038816
aF0.007683033
aF0.009145889
aF0.037630774
aF0.0
aF0.037707597
aF0.029023815
aF0.013400193
aF0.0
aF0.024511315
aF0.121529184
aF0.0
aF0.040315393
aF0.0645412
aF0.0
aF0.069409505
asS'RT'
p379
(lp380
F0.0
aF0.0
aF0.0
aF0.0
aF0.0
aF0.0
aF0.0
aF0.0
aF0.0
aF0.0
aF0.0
aF0.0
aF0.0
aF0.0
aF0.0
aF0.0
aF0.0
aF0.0
aF0.0
asS'le'
p381
(lp382
I0
aI0
aI0
aI0
aI0
aI0
aI0
aI0
aI0
aI0
aI0
aI0
aI0
aI0
aI0
aI0
aI0
aI0
aI0
asS'20'
p383
(lp384
I0
aI0
aI0
aI0
aI0
aI0
aI0
aI0
aI0
aI0
aI0
aI0
aI0
aI0
aI0
aI0
aI0
aI0
aI0
asS'haughty'
p385
(lp386
F0.0
aF0.0
aF0.0
aF0.0
aF0.037948016
aF0.010368846
aF0.0
aF0.0
aF0.04658056
aF0.0
aF0.0
aF0.046905458
aF0.0
aF0.0
aF0.0
aF0.07022386
aF0.0
aF0.0
aF0.0
asS'Serena'
p387
(lp388
F0.0
aF0.0
aF0.0
aF0.0
aF0.0
aF0.0
aF0.0
aF0.0
aF0.0
aF0.0
aF0.0
aF0.0
aF0.0
aF0.0
aF0.0
aF0.0
aF0.0
aF0.0
aF0.0
asS'interesting'
p389
(lp390
F0.0
aF0.032426484
aF0.020578384
aF0.0
aF0.0
aF0.0
aF0.0
aF0.090954
aF0.0
aF0.049384978
aF0.025764285
aF0.0
aF0.0
aF0.9386309
aF0.0
aF0.052618667
aF0.0
aF0.0
aF0.14882107
asS'Cup'
p391
(lp392
F0.08429097
aF0.009763961
aF0.011190471
aF0.07113652
aF0.0026765366
aF0.020833772
aF0.021243127
aF0.0
aF0.0
aF0.0
aF0.0
aF0.0
aF0.0
aF0.020860374
aF0.037752308
aF0.0
aF0.049485356
aF0.0387347
aF0.044795264
asS'destroyed'
p393
(lp394
F0.005902955
aF0.008950002
aF0.034419265
aF0.04064996
aF0.12212661
aF0.005677838
aF0.041851822
aF0.016985472
aF0.0174207
aF0.030455824
aF0.10586601
aF0.031150047
aF0.0
aF0.009870555
aF0.009304375
aF0.015224189
aF0.0
aF0.044650916
aF0.012856461
asS'attraction'
p395
(lp396
F0.0
aF0.0
aF0.26679905
aF0.047294084
aF0.0
aF0.0
aF0.117222115
aF0.11024554
aF0.0
aF0.0
aF0.0
aF0.0
aF0.0
aF0.23240817
aF0.0
aF0.0
aF0.10254565
aF0.0
aF0.25123312
asS'Quest'
p397
(lp398
F0.06833243
aF0.013697942
aF0.0
aF0.027905997
aF0.0
aF0.0
aF0.0
aF0.0035503604
aF0.0
aF0.0
aF0.06638043
aF0.0
aF0.0
aF0.10033921
aF0.0
aF0.0
aF0.06476819
aF0.0
aF0.13825406
asS'aprilia'
p399
(lp400
I0
aI0
aI0
aI0
aI0
aI0
aI0
aI0
aI0
aI0
aI0
aI0
aI0
aI0
aI0
aI0
aI0
aI0
aI0
asS'2016'
p401
(lp402
I0
aI0
aI0
aI0
aI0
aI0
aI0
aI0
aI0
aI0
aI0
aI0
aI0
aI0
aI0
aI0
aI0
aI0
aI0
asS'attachment'
p403
(lp404
F0.07652435
aF0.06384246
aF0.20609367
aF0.08048366
aF0.0
aF0.0
aF0.11679642
aF0.017470725
aF0.0
aF0.0
aF0.0
aF0.0
aF0.035756156
aF0.1197723
aF0.0
aF0.0
aF0.17646986
aF0.0
aF0.1721522
asS'tickled'
p405
(lp406
F0.05898804
aF0.0
aF0.010108684
aF0.0
aF0.0
aF0.0
aF0.0
aF0.0
aF0.11262237
aF0.023048498
aF0.0
aF0.0
aF0.004102666
aF0.054273173
aF0.010333937
aF0.0
aF0.009010114
aF0.0
aF0.017719658
asS'lonely'
p407
(lp408
F0.0
aF0.0
aF0.0
aF0.0
aF0.091220826
aF0.0
aF0.0
aF0.0
aF0.0
aF0.0
aF0.0
aF0.0
aF0.0
aF0.0
aF0.12648371
aF0.0
aF0.0
aF0.13300198
aF0.0
asS'motivated'
p409
(lp410
F0.015253803
aF0.0
aF0.0
aF0.0331532
aF0.045189753
aF0.0
aF0.0
aF0.045867447
aF0.0
aF0.0
aF0.016391005
aF0.04740716
aF0.0
aF0.14648218
aF0.0
aF0.0
aF0.0
aF0.019818828
aF0.00549265
asS'breakingnews'
p411
(lp412
F0.0
aF0.0
aF0.0
aF0.0
aF0.0
aF0.0
aF0.0
aF0.0
aF0.0
aF0.0
aF0.0
aF0.0
aF0.0
aF0.0
aF0.0
aF0.0
aF0.0
aF0.0
aF0.0
asS'sarcastic'
p413
(lp414
F0.0
aF0.0
aF0.0
aF0.0
aF0.0
aF0.0
aF0.0
aF0.0
aF0.026105164
aF0.200015625
aF0.1631935
aF0.046516936
aF0.0
aF0.0
aF0.09044695
aF0.2464125
aF0.0
aF0.0
aF0.0
asS'blessed'
p415
(lp416
F0.1403946
aF0.0
aF0.0
aF0.0
aF0.024499271
aF0.000532
aF0.048274226
aF0.021484409
aF0.055479914
aF0.0
aF0.046213098
aF0.0
aF0.0
aF0.0
aF0.06806526
aF0.0
aF0.030363925
aF0.056490283
aF0.038072236
asS'break'
p417
(lp418
F0.039951067
aF0.0019081151
aF0.017976472
aF0.06078955
aF0.03976058
aF0.0005991039
aF0.008619281
aF0.07659521
aF0.0
aF0.0
aF0.06990729
aF0.025435112
aF0.0
aF0.0024181863
aF0.0
aF0.005315672
aF0.016995331
aF0.020798143
aF0.06350094
asS'repulsive'
p419
(lp420
F0.0
aF0.0
aF0.010128727
aF0.03799479
aF0.010781146
aF0.045048844
aF0.031340457
aF0.023268234
aF0.14205037
aF0.1927313
aF0.0
aF0.0
aF0.0
aF0.055765975
aF0.0
aF0.15611836
aF0.003702073
aF0.0
aF0.0
asS'shameful'
p421
(lp422
F0.0
aF0.0
aF0.0
aF0.0
aF0.042404756
aF0.0
aF0.008818302
aF0.010637414
aF0.01260756
aF0.12769048
aF0.0
aF0.0
aF0.0
aF0.031353336
aF0.06291291
aF0.18749197
aF0.0
aF0.04136067
aF0.009259774
asS'not'
p423
(lp424
F0.023980502
aF0.019887855
aF0.03965067
aF0.0017041058
aF0.042507067
aF0.0
aF0.019259255
aF0.04450113
aF0.0
aF0.0
aF0.018138902
aF0.0026304335
aF0.0
aF0.049929567
aF0.00905214
aF0.014784771
aF0.006597582
aF0.01196529
aF0.0022144853
asS'now'
p425
(lp426
F0.0
aF0.0
aF0.0
aF0.0
aF0.042786222
aF0.006743047
aF0.0
aF0.07370223
aF0.0
aF0.0
aF0.0
aF0.0
aF0.0
aF0.028197374
aF0.0
aF0.0
aF0.03826695
aF0.0
aF0.0
asS'Rafael'
p427
(lp428
F0.0
aF0.0
aF0.0
aF0.0
aF0.0
aF0.0
aF0.0
aF0.0
aF0.0
aF0.0
aF0.0
aF0.0
aF0.0
aF0.0
aF0.0
aF0.0
aF0.0
aF0.0
aF0.0
asS'bigger'
p429
(lp430
F0.0
aF0.021019686
aF0.0
aF0.03180538
aF0.072964676
aF0.0
aF0.0
aF0.04334365
aF0.013389635
aF0.0
aF0.057090893
aF0.049080666
aF0.0
aF0.023618571
aF0.0037426902
aF0.041179385
aF0.0
aF0.0
aF0.036468897
asS'execute'
p431
(lp432
F0.0
aF0.0
aF0.040184256
aF0.013339739
aF0.0
aF0.119402155
aF0.011330771
aF0.056345474
aF0.026759988
aF0.0123222
aF0.000684
aF0.00910964
aF0.011422277
aF0.016011538
aF0.0
aF0.043222874
aF0.015305447
aF0.0
aF0.0
asS'speaks'
p433
(lp434
F0.013700002
aF0.024975717
aF0.021001415
aF0.11294653
aF0.14132978
aF0.024896447
aF0.0
aF0.0
aF0.06898585
aF0.0047615347
aF0.06078318
aF0.054070044
aF0.0324592
aF0.0
aF0.02190018
aF0.0
aF0.0
aF0.028611045
aF0.07115183
asS'name'
p435
(lp436
F0.0
aF0.0
aF0.005202023
aF0.022776684
aF0.010729902
aF0.043710284
aF0.031470273
aF0.032695092
aF0.046579484
aF0.027025953
aF0.011970707
aF0.0
aF0.014407495
aF0.023745537
aF0.0032087462
aF0.0053057494
aF0.0
aF0.011150394
aF0.038150515
asS'warned'
p437
(lp438
F0.0
aF0.08122363
aF0.0
aF0.0
aF0.35112122
aF0.08095095
aF0.0
aF0.044366833
aF0.027477795
aF0.008020406
aF0.074075714
aF0.000425463
aF0.09268785
aF0.0
aF0.0
aF0.04307518
aF0.054237623
aF0.0
aF0.0
asS'perplex '
p439
(lp440
F0.0
aF0.0
aF0.0
aF0.0
aF0.096163675
aF0.20544963
aF0.0
aF0.0
aF0.032271363
aF0.056537375
aF0.0
aF0.0
aF0.0
aF0.0
aF0.0
aF0.224882434
aF0.0
aF0.0
aF0.0
asS'privileged'
p441
(lp442
F0.064826526
aF0.0
aF0.045717124
aF0.0
aF0.0
aF0.05998009
aF0.013764629
aF0.0
aF0.038651366
aF0.005352686
aF0.029419413
aF0.02204553
aF0.0
aF0.039034378
aF0.059326082
aF0.000635
aF0.01230384
aF0.039520912
aF0.0
asS'victory'
p443
(lp444
F0.09799289
aF0.05650372
aF0.050264392
aF0.07377318
aF0.013742873
aF0.0248628
aF0.0
aF0.010089858
aF0.038711123
aF0.0
aF0.026004542
aF0.0
aF0.050496284
aF0.011659643
aF0.0
aF0.0
aF0.0
aF0.0
aF0.03147646
asS'incapacitated'
p445
(lp446
F0.0
aF0.0
aF0.0
aF0.0
aF0.0
aF0.13423006
aF0.0
aF0.0
aF0.048973177
aF0.030233748
aF0.03613931
aF0.0
aF0.0
aF0.0
aF0.04294667
aF0.05014919
aF0.0
aF0.059188
aF0.0
asS'Black'
p447
(lp448
F0.0
aF0.014868919
aF0.0043074605
aF0.067999974
aF0.057196844
aF0.038378347
aF0.071637586
aF0.039762393
aF0.10158216
aF0.05216157
aF0.06280996
aF0.060605086
aF0.04017042
aF0.0
aF0.002018798
aF0.0
aF0.010261989
aF0.0
aF0.0
asS'shocking'
p449
(lp450
F0.0
aF0.016677557
aF0.0
aF0.030686101
aF0.026189556
aF0.0
aF0.18805379
aF0.26015124
aF0.0
aF0.12857695
aF0.0
aF0.0
aF0.0
aF0.059771147
aF0.035297118
aF0.13051516
aF0.0
aF0.0
aF0.031737544
asS'Sport'
p451
(lp452
F0.03507042
aF0.013869412
aF0.05338961
aF0.0
aF0.07844192
aF0.010460718
aF0.040438782
aF0.0
aF0.010993833
aF0.016356584
aF0.037217863
aF0.0
aF0.043154415
aF0.09514049
aF0.0053259833
aF0.047967188
aF0.0
aF0.0
aF0.17827642
asS'revere'
p453
(lp454
F0.09910804
aF0.24417907
aF0.7810769
aF0.03090352
aF0.313454
aF0.2094206
aF0.33397302
aF0.031751353
aF0.43164584
aF0.23545296
aF0.039903305
aF0.06079847
aF0.13016263
aF0.13503626
aF0.24681285
aF0.19421591
aF0.34308714
aF0.19433698
aF0.12212191
asS'mean'
p455
(lp456
F0.0
aF0.0
aF0.0
aF0.0
aF0.23046881
aF0.015549025
aF0.0
aF0.0
aF0.0
aF0.0
aF0.01376857
aF0.015035563
aF0.0
aF0.0
aF0.027224082
aF0.26655387
aF0.0
aF0.03636649
aF0.0986449
asS'exhilarated'
p457
(lp458
F0.09281605
aF0.0
aF0.005584686
aF0.0
aF0.0
aF0.007323384
aF0.03105634
aF0.0
aF0.17507814
aF0.12271469
aF0.019310646
aF0.00061
aF0.067183614
aF0.0
aF0.075032964
aF0.0
aF0.054603606
aF0.054448277
aF0.0
asS'exasperated'
p459
(lp460
F0.0
aF0.0
aF0.0
aF0.0
aF0.08567115
aF0.0
aF0.0
aF0.0
aF0.0
aF0.19694947
aF0.18206371
aF0.44081566
aF0.0
aF0.0
aF0.0
aF0.1283484
aF0.0
aF0.0
aF0.0
asS'reduce'
p461
(lp462
F0.027828913
aF0.0
aF0.04070124
aF0.020882227
aF0.05546785
aF0.05604149
aF0.0075713736
aF0.0
aF0.014712612
aF0.0045726816
aF0.026512967
aF0.025564065
aF0.0
aF0.0
aF0.0
aF0.0
aF0.0
aF0.0017442205
aF0.029671451
asS'GoRoyals'
p463
(lp464
F0.022929061
aF0.0
aF0.059434645
aF0.0
aF0.046204746
aF0.0
aF0.02479162
aF0.030199725
aF0.0
aF0.03736765
aF0.062066223
aF0.044994127
aF0.0
aF0.06924265
aF0.038503386
aF0.035600122
aF0.012586489
aF0.012663674
aF0.08115569
asS'challenges'
p465
(lp466
F0.11362896
aF0.095581844
aF0.0695118
aF0.04050568
aF0.10045117
aF0.030029617
aF0.053637415
aF0.14094816
aF0.04581123
aF0.0051921653
aF0.016978452
aF0.0
aF0.08747569
aF0.024043176
aF0.0
aF0.09473854
aF0.039549656
aF0.0
aF0.005690395
asS'expect'
p467
(lp468
F0.0333652
aF0.14182718
aF0.10203892
aF0.020824878
aF0.19868913
aF0.05088931
aF0.08364714
aF0.1718819
aF0.002341488
aF0.0
aF0.024567816
aF0.020825101
aF0.52056736
aF0.08250157
aF0.022242181
aF0.050845586
aF0.018579476
aF0.014732207
aF0.06258594
asS'incensed'
p469
(lp470
F0.0
aF0.0
aF0.0
aF0.07592835
aF0.008894173
aF0.0
aF0.0
aF0.0
aF0.041214146
aF0.072189264
aF0.088527724
aF0.19071154
aF0.0
aF0.0
aF0.0
aF0.0
aF0.009090886
aF0.0
aF0.013133207
asS'Quirky'
p471
(lp472
F0.0
aF0.00995287
aF0.020666836
aF0.010652066
aF0.0
aF0.0
aF0.0
aF0.08712964
aF0.0
aF0.0
aF0.0
aF0.0
aF0.0
aF0.05984092
aF0.06862475
aF0.032126788
aF0.0
aF0.0
aF0.061469533
asS'worried'
p473
(lp474
F0.0
aF0.0
aF0.0
aF0.0
aF1.0
aF0.17263699
aF0.0
aF0.0
aF0.0837391
aF0.07482142
aF0.05952317
aF0.13539098
aF0.0
aF0.0
aF0.16195565
aF0.07307079
aF0.0
aF0.14487056
aF0.0
asS'amusement'
p475
(lp476
F0.3117193
aF0.097438745
aF0.3442384
aF0.103309326
aF0.0
aF0.0
aF0.53448224
aF0.2560874
aF0.0
aF0.0
aF0.0
aF0.0
aF0.14237006
aF0.07246269
aF0.0
aF0.0
aF0.13450666
aF0.0
aF0.08315413
asS'hysteria'
p477
(lp478
F0.0
aF0.0
aF0.0
aF0.0
aF0.60448766
aF0.26833084
aF0.0
aF0.0
aF0.3413092
aF0.211726
aF0.392058
aF0.22844158
aF0.0
aF0.0
aF0.1817374
aF0.0
aF0.0
aF0.16173966
aF0.0
asS'Novak'
p479
(lp480
F0.0
aF0.0
aF0.0
aF0.0
aF0.0
aF0.0
aF0.0
aF0.0
aF0.0
aF0.0
aF0.0
aF0.0
aF0.0
aF0.0
aF0.0
aF0.0
aF0.0
aF0.0
aF0.0
asS'infuriated'
p481
(lp482
F0.0
aF0.0
aF0.0
aF0.0
aF0.08609499
aF0.0
aF0.0
aF0.0
aF0.0
aF0.084076434
aF0.5328544
aF0.6337934
aF0.0
aF0.0
aF0.0
aF0.23575468
aF0.0
aF0.0
aF0.0
asS'defend'
p483
(lp484
F0.01076655
aF0.001105924
aF0.034680884
aF0.10014157
aF0.008700769
aF0.01303585
aF0.013123476
aF0.1531712
aF0.028937064
aF0.000283
aF0.053349707
aF0.066212736
aF0.011991543
aF0.026849216
aF0.030438969
aF0.040726665
aF0.0
aF0.040354267
aF0.0
asS'chaos'
p485
(lp486
F0.14457607
aF0.030839976
aF0.0
aF0.018195458
aF0.18810976
aF0.05862309
aF0.048019435
aF0.07962077
aF0.044151504
aF0.06100454
aF0.12004955
aF0.12007079
aF0.024522828
aF0.001010428
aF0.0988625
aF0.0
aF0.0
aF0.120788455
aF0.023145348
asS'content'
p487
(lp488
F0.0
aF0.0
aF0.0
aF0.003373019
aF0.0
aF0.0
aF0.0
aF0.0
aF0.041401148
aF0.0
aF0.031536147
aF0.0
aF0.0
aF0.001369303
aF0.0
aF0.0
aF0.0
aF0.0
aF0.0
asS're'
p489
(lp490
I0
aI0
aI0
aI0
aI0
aI0
aI0
aI0
aI0
aI0
aI0
aI0
aI0
aI0
aI0
aI0
aI0
aI0
aI0
asS'7'
p491
(lp492
I0
aI0
aI0
aI0
aI0
aI0
aI0
aI0
aI0
aI0
aI0
aI0
aI0
aI0
aI0
aI0
aI0
aI0
aI0
asS'ass'
p493
(lp494
F0.033329826
aF0.0
aF0.000343
aF0.025080942
aF0.015522571
aF0.04146574
aF0.108600274
aF0.011506329
aF0.021101337
aF0.09673354
aF0.03008397
aF0.005168455
aF0.047209002
aF0.019632544
aF0.020063015
aF0.0
aF0.008937907
aF0.0
aF0.022498008
asS'Failing'
p495
(lp496
F0.0
aF0.025175642
aF0.05440406
aF0.019385
aF0.0014036921
aF0.0
aF0.10956165
aF0.069145545
aF0.061337806
aF0.05117732
aF0.0
aF0.017393155
aF0.0
aF0.0
aF0.017748477
aF0.034839597
aF0.0
aF0.0
aF0.0
asS'Pipsfinder'
p497
(lp498
F0.0
aF0.0
aF0.0
aF0.0
aF0.0
aF0.0
aF0.0
aF0.0
aF0.0
aF0.0
aF0.0
aF0.0
aF0.0
aF0.0
aF0.0
aF0.0
aF0.0
aF0.0
aF0.0
asS'theory'
p499
(lp500
F0.0
aF0.022802537
aF0.0010941869
aF0.10692709
aF0.03397966
aF0.0
aF0.014858495
aF0.009759481
aF0.0
aF0.0
aF0.0014193009
aF0.0
aF0.051624343
aF0.10434146
aF0.008019025
aF0.0
aF0.0
aF0.014418782
aF0.0
asS'pathetic'
p501
(lp502
F0.0
aF0.0
aF0.0
aF0.0
aF0.0
aF0.0
aF0.0
aF0.0
aF0.10440691
aF0.23674017
aF0.17579396
aF0.041988414
aF0.0
aF0.0
aF0.20111218
aF0.38169153
aF0.0
aF0.18066692
aF0.0
asS'drugmaker'
p503
(lp504
F0.0
aF0.0
aF0.0
aF0.0
aF0.0
aF0.0
aF0.0
aF0.0
aF0.0
aF0.0
aF0.0
aF0.0
aF0.0
aF0.0
aF0.0
aF0.0
aF0.0
aF0.0
aF0.0
asS'dealt'
p505
(lp506
F0.023705928
aF0.015836766
aF0.005235367
aF0.16221185
aF0.105134524
aF0.07876899
aF0.05290429
aF0.023636626
aF0.007015168
aF0.01068888
aF0.1393104
aF0.059675526
aF0.029301008
aF0.021709723
aF0.06820184
aF0.016241511
aF0.022699377
aF0.07432494
aF0.055919226
asS'threatened'
p507
(lp508
F0.0
aF0.0
aF0.0
aF0.0
aF0.48505813
aF0.0
aF0.0
aF0.0
aF0.0
aF0.0
aF0.05060816
aF0.037240542
aF0.0
aF0.0
aF0.0
aF0.017126346
aF0.0
aF0.0
aF0.0
asS'bombshell'
p509
(lp510
F0.0106452685
aF0.0
aF0.0
aF0.032671764
aF0.038651995
aF0.0
aF0.0422841
aF0.5452441
aF0.044411756
aF0.029417608
aF0.08361736
aF0.0
aF0.043243174
aF0.042456362
aF0.0
aF0.0
aF0.0
aF0.0
aF0.062265128
asS'ban'
p511
(lp512
F0.01291275
aF0.0753296
aF0.02461061
aF0.058956835
aF0.043073528
aF0.0
aF0.042781077
aF0.020339593
aF0.09205154
aF0.067894526
aF0.01481903
aF0.0
aF0.0
aF0.0
aF0.09893118
aF0.14817688
aF0.048435066
aF0.03685327
aF0.075062
asS'Meldonium'
p513
(lp514
F0.0
aF0.0
aF0.0
aF0.0
aF0.0
aF0.0
aF0.0
aF0.0
aF0.0
aF0.0
aF0.0
aF0.0
aF0.0
aF0.0
aF0.0
aF0.0
aF0.0
aF0.0
aF0.0
asS'jubilant'
p515
(lp516
F0.30047536
aF0.2551347
aF0.04654516
aF0.019355975
aF0.0
aF0.0
aF0.2068012
aF0.14957567
aF0.0
aF0.0
aF0.0
aF0.0
aF0.1942439
aF0.0
aF0.0
aF0.0
aF0.026285928
aF0.0
aF0.0
asS'Nadal'
p517
(lp518
F0.0
aF0.0
aF0.0
aF0.0
aF0.0
aF0.0
aF0.0
aF0.0
aF0.0
aF0.0
aF0.0
aF0.0
aF0.0
aF0.0
aF0.0
aF0.0
aF0.0
aF0.0
aF0.0
asS'cured'
p519
(lp520
F0.0
aF0.038949706
aF0.0
aF0.07294227
aF0.0
aF0.027743887
aF0.03808018
aF0.0
aF0.0
aF0.0
aF0.018085035
aF0.000119124
aF0.0
aF0.0
aF0.0
aF0.105429724
aF0.0
aF0.011642312
aF0.004188275
asS'hostile'
p521
(lp522
F0.08666217
aF0.007826174
aF0.08680579
aF0.0
aF0.012723933
aF0.08460807
aF0.09906994
aF0.02272508
aF0.118828714
aF0.05767723
aF0.06474995
aF0.026568431
aF0.060571913
aF0.0
aF0.08365058
aF0.17088638
aF0.011861774
aF0.12685312
aF0.023158288
asS'deprived'
p523
(lp524
F0.11019502
aF0.0
aF0.0
aF0.0
aF0.013835534
aF0.026722042
aF0.021728726
aF0.06605512
aF0.017972548
aF0.0
aF0.0
aF0.040982205
aF0.07625184
aF0.01826145
aF0.00119877
aF0.007120531
aF0.04401407
aF0.0
aF0.015806058
asS'refugee'
p525
(lp526
F0.0041572885
aF0.04638253
aF0.02747718
aF0.027209457
aF0.033673782
aF0.078967005
aF0.011060618
aF0.0
aF0.024743121
aF0.022481639
aF0.07774727
aF0.015664386
aF0.0
aF0.0
aF0.003612103
aF0.0
aF0.0
aF0.0074620913
aF0.0
asS'diminished'
p527
(lp528
F0.0
aF0.0
aF0.0
aF0.0
aF0.0
aF0.018495249
aF0.018658506
aF0.0
aF0.014729083
aF0.028114032
aF0.0
aF0.03110132
aF0.0
aF0.0
aF0.05780981
aF0.06423492
aF0.0
aF0.05303337
aF0.0
asS'vehemently'
p529
(lp530
F0.06303241
aF0.05466732
aF0.0525689
aF0.0
aF0.09076161
aF0.007500067
aF0.042235404
aF0.05141852
aF0.039741483
aF0.011341775
aF0.08265646
aF0.13264482
aF0.003486757
aF0.035788506
aF0.046264943
aF0.30049896
aF0.0
aF0.0
aF0.016498137
asS'times'
p531
(lp532
F0.04235947
aF0.0
aF0.036583364
aF0.010823079
aF0.020054612
aF0.02903702
aF0.014472972
aF0.061903317
aF0.032899585
aF0.0165233
aF0.018549005
aF0.017271226
aF0.30325
aF0.039370973
aF0.0028706503
aF0.05986937
aF0.066318095
aF0.053988043
aF0.01213771
asS'lousy'
p533
(lp534
F0.012430634
aF0.0
aF0.016283289
aF0.0
aF0.03281656
aF0.0
aF0.02114701
aF0.0
aF0.07775793
aF0.04227517
aF0.0
aF0.0
aF0.0
aF0.005220463
aF0.0733297
aF0.04167062
aF0.018780662
aF0.07092158
aF0.064994656
asS"Sharapova's"
p535
(lp536
F0.0
aF0.0
aF0.0
aF0.0
aF0.0
aF0.0
aF0.0
aF0.0
aF0.0
aF0.0
aF0.0
aF0.0
aF0.0
aF0.0
aF0.0
aF0.0
aF0.0
aF0.0
aF0.0
asS'sarcastically'
p537
(lp538
F0.0
aF0.0
aF0.0
aF0.0
aF0.0
aF0.0
aF0.0
aF0.0
aF0.026105164
aF0.200015625
aF0.1631935
aF0.046516936
aF0.0
aF0.0
aF0.09044695
aF0.2464125
aF0.0
aF0.0
aF0.0
asS'enraged'
p539
(lp540
F0.0
aF0.0
aF0.0
aF0.0
aF0.0
aF0.0
aF0.0
aF0.0
aF0.0
aF0.0
aF0.3250015
aF0.6337934
aF0.0
aF0.0
aF0.0
aF0.19029684
aF0.0
aF0.0
aF0.0
asS'naughty'
p541
(lp542
F0.08065741
aF0.04354263
aF0.0
aF0.0
aF0.0
aF0.0
aF0.08415502
aF0.1346074
aF0.0
aF0.0
aF0.019081937
aF0.00554304
aF0.0
aF0.06375609
aF0.011865096
aF0.29137233
aF0.0
aF0.0
aF0.0
asS'barbarian'
p543
(lp544
F0.031664785
aF0.008891721
aF0.0
aF0.016031682
aF0.0
aF0.041386157
aF0.024828652
aF0.15523908
aF0.09445586
aF0.0
aF0.062470175
aF0.001142879
aF0.013955864
aF0.06468771
aF0.055930022
aF0.0
aF0.009650198
aF0.015252456
aF0.0
asS'embarrassed'
p545
(lp546
F0.0
aF0.000973
aF0.0
aF0.0
aF0.0
aF0.0
aF0.0
aF0.055693116
aF0.0
aF0.0
aF0.0
aF0.09430182
aF0.0
aF0.0
aF0.003589974
aF0.0
aF0.0
aF0.012338515
aF0.0
asS'sympathy'
p547
(lp548
F0.17756091
aF0.09246478
aF0.053590214
aF0.19412334
aF0.07083126
aF0.19542797
aF0.17131184
aF0.13240074
aF0.2545367
aF0.30485538
aF0.13125683
aF0.2022602
aF0.0
aF0.2005541
aF0.25492752
aF0.24209814
aF0.13279073
aF0.3030336
aF0.14565362
asS'Indian'
p549
(lp550
F0.0
aF0.0
aF0.0
aF0.0
aF0.0
aF0.0
aF0.0
aF0.0
aF0.0
aF0.0
aF0.0
aF0.0
aF0.0
aF0.0
aF0.0
aF0.0
aF0.0
aF0.0
aF0.0
asS'deplete'
p551
(lp552
F0.0
aF0.09133797
aF0.0
aF0.0
aF0.006014351
aF0.0
aF0.018274033
aF0.02127191
aF0.0
aF0.0
aF0.0
aF0.0
aF0.11466348
aF0.0
aF0.0
aF0.0
aF0.0
aF0.0
aF0.009354339
asS'tame'
p553
(lp554
F0.002692324
aF0.0
aF0.01321629
aF0.04778389
aF0.008121759
aF0.05198332
aF0.011999779
aF0.02698577
aF0.0
aF0.006530203
aF0.13745217
aF0.05176722
aF0.0
aF0.026019296
aF0.0
aF0.0
aF0.03451585
aF0.0
aF0.08009324
asS'little'
p555
(lp556
F0.0
aF0.035790905
aF0.021284536
aF0.014703148
aF0.09771446
aF0.053247947
aF0.0
aF0.0
aF0.0
aF0.0
aF0.017317764
aF0.0
aF0.0072931093
aF0.0259351
aF0.0
aF0.01695021
aF0.030973049
aF0.0
aF0.00096578524
asS'wrath'
p557
(lp558
F0.01734432
aF0.0
aF0.21852843
aF0.0
aF0.14082906
aF0.07319124
aF0.11107325
aF0.032115996
aF0.38095376
aF0.2812491
aF0.68515146
aF0.657058
aF0.0
aF0.031626716
aF0.025813796
aF0.3198529
aF0.055734783
aF0.13936378
aF0.06810413
asS'Mess'
p559
(lp560
F0.019187815
aF0.0
aF0.03568912
aF0.0
aF0.0
aF0.0
aF0.014039069
aF0.07085415
aF0.048449922
aF0.06811653
aF0.05681798
aF0.012557389
aF0.0
aF0.04492398
aF0.0
aF0.029569715
aF0.099165276
aF0.024056949
aF0.0023130283
asS'top'
p561
(lp562
F0.009145239
aF0.02770631
aF0.065043315
aF0.018014314
aF0.0018162115
aF0.03592332
aF0.018946819
aF0.036112044
aF0.016880924
aF0.0
aF0.048920806
aF0.023765298
aF0.03437882
aF0.021887768
aF0.0
aF0.0
aF0.0
aF0.0
aF0.029012658
asS'girls'
p563
(lp564
F0.054081447
aF0.049461924
aF0.04016539
aF0.06682108
aF0.05640947
aF0.046576854
aF0.042296045
aF0.019834235
aF0.0
aF0.0
aF0.03323113
aF0.0
aF0.0
aF0.0
aF0.0
aF0.0
aF0.0
aF0.0
aF0.21435934
asS'euphoric'
p565
(lp566
F0.65207916
aF0.4735306
aF0.12069416
aF0.047279276
aF0.0
aF0.07374761
aF0.16017644
aF0.026158368
aF0.06390231
aF0.15206842
aF0.04452252
aF0.002376359
aF0.11146025
aF0.033608504
aF0.060432773
aF0.0
aF0.052590635
aF0.11244333
aF0.0
asS'euphoria'
p567
(lp568
F0.85207916
aF0.6735306
aF0.12069416
aF0.047279276
aF0.0
aF0.07374761
aF0.16017644
aF0.026158368
aF0.06390231
aF0.15206842
aF0.04452252
aF0.002376359
aF0.11146025
aF0.033608504
aF0.060432773
aF0.0
aF0.052590635
aF0.11244333
aF0.0
asS'Intentions'
p569
(lp570
F0.0
aF0.010658642
aF0.0
aF0.04473467
aF0.03843128
aF0.06364615
aF0.017628111
aF0.04014576
aF0.036695227
aF0.06664976
aF0.005407083
aF0.06169584
aF0.016324786
aF0.12995775
aF0.022665944
aF0.09083213
aF0.09621249
aF0.024530802
aF0.06467233
asS'wonderful'
p571
(lp572
F0.2496364
aF0.00325046
aF0.13212962
aF0.026095603
aF0.037836675
aF0.018110685
aF0.05730505
aF0.07037563
aF0.0
aF0.005978121
aF0.0
aF0.0
aF0.06708908
aF0.10051886
aF0.08117962
aF0.05468986
aF0.17956589
aF0.027156105
aF0.24618629
asS'tragic'
p573
(lp574
F0.06647998
aF0.04842188
aF0.033953227
aF0.021996066
aF0.035498977
aF0.0
aF0.03310373
aF0.024829239
aF0.0
aF0.022671517
aF0.046048183
aF0.06471979
aF0.0
aF0.03531418
aF0.24446726
aF0.0707789
aF0.038229216
aF0.23909892
aF0.1147799
asS'terrifying'
p575
(lp576
F0.0
aF0.0
aF0.0
aF0.0
aF0.23894529
aF0.100876905
aF0.0
aF0.0
aF0.063016035
aF0.0
aF0.16267361
aF0.048823565
aF0.0
aF0.0
aF0.08907118
aF0.0
aF0.0
aF0.07654527
aF0.0
asS'stuffed'
p577
(lp578
F0.035006694
aF0.0
aF0.0053193024
aF0.056738954
aF0.0
aF0.0
aF0.0047358302
aF0.083093874
aF0.014764965
aF0.059270266
aF0.0
aF0.0
aF0.07558928
aF0.05043019
aF0.008597425
aF0.0
aF0.04668948
aF0.0
aF0.120510295
asS'bitter'
p579
(lp580
F0.07051456
aF0.0
aF0.0
aF0.0
aF0.07079032
aF0.002566727
aF0.03084569
aF0.0
aF0.060616273
aF0.04150253
aF0.10328704
aF0.10803334
aF0.0
aF0.0
aF0.051865704
aF0.0
aF0.0
aF0.07275565
aF0.0
asS'final'
p581
(lp582
F0.007717034
aF0.0
aF0.0
aF0.017170038
aF0.04451218
aF0.027474942
aF0.016954493
aF0.06756692
aF0.015249933
aF0.010068585
aF0.01645672
aF0.018236646
aF0.006194206
aF0.001945064
aF0.02560469
aF0.0
aF0.0
aF0.017058004
aF0.015611576
asS'damaging'
p583
(lp584
F0.014221655
aF0.03778972
aF0.06646785
aF0.003493442
aF0.07809523
aF0.019212496
aF0.0
aF0.0
aF0.017970908
aF0.0
aF0.010261711
aF0.017154427
aF0.0
aF0.04204136
aF0.0
aF0.009555419
aF0.030531988
aF0.033128407
aF0.03247407
asS'murder'
p585
(lp586
F0.0
aF0.017847989
aF0.037241593
aF0.033022344
aF0.021049008
aF0.011056469
aF0.022047779
aF0.031147946
aF0.041360028
aF0.009903957
aF0.08070358
aF0.014257816
aF0.02044595
aF0.044617362
aF6.74e-05
aF0.011092709
aF0.004296483
aF0.04511948
aF0.06384388
asS'vigorous'
p587
(lp588
F0.034189597
aF0.040050115
aF0.001501559
aF0.024393963
aF0.0
aF0.047569927
aF0.0
aF0.0
aF0.003165946
aF0.03946713
aF0.049996577
aF0.032651987
aF0.063254975
aF0.0
aF0.0
aF0.054320402
aF0.04705111
aF0.037593056
aF0.026939092
asS'statement'
p589
(lp590
F0.0
aF0.0486783
aF0.011630854
aF0.09439698
aF0.0
aF0.0
aF0.018496072
aF0.08770971
aF0.0
aF0.0
aF0.021741776
aF0.02400619
aF0.0
aF0.020736573
aF0.04055151
aF0.0
aF0.03125358
aF0.022344133
aF0.0
asS'relieved'
p591
(lp592
F0.26202157
aF0.058056943
aF0.06416856
aF0.10670435
aF0.09320968
aF0.121393465
aF0.21164335
aF0.08459723
aF0.101007186
aF0.18456483
aF0.09386001
aF0.16964343
aF0.0
aF0.0
aF0.17543964
aF0.0831643
aF0.0
aF0.16426218
aF0.046093218
asS'doomed'
p593
(lp594
F0.0
aF0.0
aF0.0
aF0.0
aF0.21504539
aF0.259714
aF0.0
aF0.0
aF0.16334689
aF0.14021993
aF0.0
aF0.027349561
aF0.0
aF0.0
aF0.2121073
aF0.17662314
aF0.0
aF0.07678939
aF0.0
asS'rejected'
p595
(lp596
F0.0
aF0.023613527
aF0.030302672
aF0.40182462
aF0.05820004
aF0.015365249
aF0.016981049
aF0.02356369
aF0.03200214
aF0.074511416
aF0.0419905
aF0.088375784
aF0.0
aF0.03371551
aF0.041641057
aF0.16992235
aF0.01374961
aF0.021740234
aF0.026616925
asS'No'
p597
(lp598
I0
aI0
aI0
aI0
aI0
aI0
aI0
aI0
aI0
aI0
aI0
aI0
aI0
aI0
aI0
aI0
aI0
aI0
aI0
asS'deteriorating'
p599
(lp600
F0.0
aF0.06387859
aF0.026586283
aF0.0
aF0.050882526
aF0.029023726
aF0.0
aF0.0
aF0.027906949
aF0.0645489
aF0.022628123
aF0.0
aF0.019409562
aF0.016580416
aF0.008854474
aF0.047018662
aF0.06335893
aF0.0
aF0.03663805
asS'ridiculous'
p601
(lp602
F0.0
aF0.04212861
aF0.021561341
aF0.027948325
aF0.016181132
aF0.03547207
aF0.097700216
aF0.021466983
aF0.0
aF0.062170107
aF0.07249963
aF0.014923628
aF0.0
aF0.03656102
aF0.0
aF0.0
aF0.0
aF0.031583354
aF0.011482123
asS'astounded'
p603
(lp604
F0.0
aF0.0115405
aF0.18940176
aF0.0
aF0.0
aF0.0
aF0.84186363
aF0.9083772
aF0.0
aF0.0
aF0.0
aF0.0
aF0.0
aF0.01192723
aF0.0
aF0.0
aF0.020089397
aF0.0
aF0.005591732
asS'History'
p605
(lp606
F0.0
aF0.0
aF0.0
aF0.010167729
aF0.0
aF0.0
aF0.0
aF0.007593892
aF0.031242298
aF0.0
aF0.0
aF0.01069286
aF0.017576016
aF0.119087204
aF0.0
aF0.044609174
aF0.024673106
aF0.0
aF0.031653475
asS'loved'
p607
(lp608
F0.24838665
aF0.06385835
aF0.20727381
aF0.0576215
aF0.12496713
aF0.004700784
aF0.03965012
aF0.051676784
aF0.06956697
aF0.053472858
aF0.09302826
aF0.060520083
aF0.002735756
aF0.17863204
aF0.054251105
aF0.079617366
aF0.13129553
aF0.12927473
aF0.8617246
asS'target'
p609
(lp610
F0.007309155
aF0.0
aF0.06624014
aF0.031939026
aF0.03342206
aF0.0232733
aF0.09851029
aF0.08222907
aF0.12729691
aF0.14385791
aF0.047892552
aF0.08012654
aF0.0
aF0.014716947
aF0.044770885
aF0.044287942
aF0.0
aF0.004276621
aF0.0
asS'boring'
p611
(lp612
F0.0
aF0.0
aF0.019681642
aF0.018202884
aF0.038302667
aF0.0
aF0.059861433
aF0.08569763
aF0.07415643
aF0.0
aF0.008125712
aF0.0
aF0.0
aF0.042718157
aF0.0
aF0.0
aF0.023623196
aF0.0
aF0.067057766
asS'vocal'
p613
(lp614
F0.0
aF0.043816693
aF0.0
aF0.0
aF0.045112636
aF0.03531978
aF0.0
aF0.0
aF0.0
aF0.0
aF0.11335704
aF0.07224819
aF0.0
aF0.0
aF0.03332782
aF0.061715886
aF0.0
aF0.018710332
aF0.0
asS'spirited'
p615
(lp616
F0.03662968
aF0.01034687
aF0.03547771
aF0.012699793
aF0.01888015
aF0.024024088
aF0.046121735
aF0.051087562
aF0.0
aF0.06358373
aF0.0500929
aF0.01558998
aF0.066858284
aF0.0
aF0.048044793
aF0.00973212
aF0.029725313
aF0.056446105
aF0.02608044
asS'determined'
p617
(lp618
F0.03745454
aF0.09283535
aF0.044982597
aF0.00543866
aF0.008780423
aF0.016889632
aF0.019410454
aF0.010862189
aF0.016264103
aF0.0
aF0.074712045
aF0.02111445
aF0.003458743
aF0.10684051
aF0.029279191
aF0.033232417
aF0.020068837
aF0.03158606
aF0.027428197
asS'contrary'
p619
(lp620
F0.0
aF0.0
aF0.0
aF0.0
aF0.0
aF0.028866315
aF0.0
aF0.0
aF0.0
aF0.0
aF0.0
aF0.0
aF0.0
aF0.0
aF0.0
aF0.0
aF0.0
aF0.0
aF0.0
asS'amid'
p621
(lp622
I0
aI0
aI0
aI0
aI0
aI0
aI0
aI0
aI0
aI0
aI0
aI0
aI0
aI0
aI0
aI0
aI0
aI0
aI0
asS'happy'
p623
(lp624
F0.24886608
aF0.13903964
aF0.024073435
aF0.09211753
aF0.033101447
aF0.053966228
aF0.10076265
aF0.25960106
aF0.021426048
aF0.046407767
aF0.042871524
aF0.06967198
aF0.055876985
aF0.14054964
aF0.11979893
aF0.02818548
aF0.022610718
aF0.08515523
aF0.1959651
asS'Test.'
p625
(lp626
F0.0
aF0.022639047
aF0.033050485
aF0.033966493
aF0.07847993
aF0.028511843
aF0.033516776
aF0.043882024
aF0.0
aF0.0
aF0.0006133906
aF0.0
aF0.0
aF0.0
aF0.0
aF0.0
aF0.0
aF0.0
aF0.02567718
asS'vulnerably'
p627
(lp628
F0.0
aF0.0
aF0.0
aF0.0
aF0.18164663
aF0.078538746
aF0.0
aF0.0
aF0.05665502
aF0.064283766
aF0.060253706
aF0.060183737
aF0.0
aF0.0
aF0.0845521
aF0.027729044
aF0.0
aF0.04252486
aF0.0
asS'uncomfortable'
p629
(lp630
F0.0
aF0.0
aF0.0
aF0.0
aF0.15741277
aF0.0993817
aF0.0
aF0.0
aF0.0
aF0.0
aF0.0
aF0.09092537
aF0.0
aF0.0
aF0.0
aF0.10450442
aF0.0
aF0.0
aF0.0
asS'Richard'
p631
(lp632
F0.0
aF0.0
aF0.0
aF0.0
aF0.0
aF0.0
aF0.0
aF0.0
aF0.0
aF0.0
aF0.0
aF0.0
aF0.0
aF0.0
aF0.0
aF0.0
aF0.0
aF0.0
aF0.0
asS'suspicious'
p633
(lp634
F0.0
aF0.0
aF0.0
aF0.0
aF0.12761785
aF0.20095487
aF0.0
aF0.0
aF0.07808272
aF0.0
aF0.0
aF0.1
aF0.0
aF0.0
aF0.0
aF0.1247743
aF0.0
aF0.0
aF0.0
asS'committment'
p635
(lp636
F0.0
aF0.099578895
aF0.24283746
aF0.19176486
aF0.020776702
aF0.0247326
aF0.020327592
aF0.0
aF0.10197008
aF0.07848712
aF0.021380935
aF0.0
aF0.018128118
aF0.18363747
aF0.0
aF0.10902217
aF0.17453437
aF0.0
aF0.18769939
asS'comfortable'
p637
(lp638
F0.017348778
aF0.0
aF0.08263853
aF0.07898431
aF0.011424529
aF0.065758765
aF0.02413337
aF0.048556816
aF0.022364818
aF0.045105465
aF0.0
aF0.03802937
aF0.0
aF0.0
aF0.008889647
aF0.091355436
aF0.0
aF0.019455316
aF0.0
asS'antagonistic'
p639
(lp640
F0.0
aF0.0
aF0.0
aF0.0
aF0.036796615
aF0.04231519
aF0.0
aF0.0
aF0.1411199
aF0.0
aF0.0
aF0.07510067
aF0.0
aF0.0
aF0.0
aF0.16082771
aF0.0
aF0.0
aF0.0
asS'raw'
p641
(lp642
F0.0
aF0.0
aF0.0
aF0.0
aF0.054216508
aF0.0
aF0.029917216
aF0.015292716
aF0.0
aF0.05823166
aF0.1241591
aF0.124740414
aF0.05627954
aF0.040782463
aF0.007742355
aF0.0
aF0.03245387
aF0.07595311
aF0.044078298
asS'slam'
p643
(lp644
F0.048025317
aF0.017632388
aF0.07158246
aF0.0
aF0.0
aF0.0
aF0.03186972
aF0.040830296
aF0.06607323
aF0.12225665
aF0.09081748
aF0.117414355
aF0.05190239
aF0.008237839
aF0.03718482
aF0.05569449
aF0.056832135
aF0.057271432
aF0.02304221
asS'ecstatically'
p645
(lp646
F0.4040085
aF0.11531283
aF0.19971947
aF0.0
aF0.0
aF0.0
aF0.3638526
aF0.1930377
aF0.0
aF0.0
aF0.0
aF0.0
aF0.2619825
aF0.0407237
aF0.0
aF0.0
aF0.06737162
aF0.0
aF0.050862193
asS'defending'
p647
(lp648
F0.01076655
aF0.001105924
aF0.034680884
aF0.10014157
aF0.008700769
aF0.01303585
aF0.013123476
aF0.1531712
aF0.028937064
aF0.000283
aF0.053349707
aF0.066212736
aF0.011991543
aF0.026849216
aF0.030438969
aF0.040726665
aF0.0
aF0.040354267
aF0.0
asS'distorted'
p649
(lp650
F0.0
aF0.038347263
aF0.0
aF0.009366962
aF0.010957521
aF0.0
aF0.0
aF0.007913283
aF0.0
aF0.0
aF0.076477125
aF0.051443096
aF0.0028320008
aF0.052493535
aF0.0
aF0.0
aF0.055936992
aF0.07493942
aF0.0
asS'in despair'
p651
(lp652
F0.4680996
aF0.28474846
aF0.40201306
aF0.11210794
aF0.3616983
aF0.51663804
aF0.52817106
aF0.09366533
aF0.54747605
aF0.5554167
aF0.41725266
aF0.4491997
aF0.34640792
aF0.0
aF0.6305832
aF0.29780176
aF0.11698625
aF0.53587866
aF0.18703365
asS'blissful'
p653
(lp654
F0.23806174
aF0.07910162
aF0.0
aF0.0
aF0.0
aF0.0
aF0.025705524
aF0.04880534
aF0.0
aF0.0
aF0.0
aF0.0
aF0.035436723
aF0.0
aF0.0
aF0.0
aF0.0
aF0.0
aF0.028402017
asS'Dozens'
p655
(lp656
F0.019200532
aF0.0
aF0.025344726
aF0.021790544
aF0.027911928
aF0.0009453405
aF0.032889932
aF0.0
aF0.009206759
aF0.03194113
aF0.021623168
aF0.0079453485
aF0.0
aF0.049483374
aF0.033560056
aF0.059554685
aF0.037695244
aF0.079596005
aF0.0
asS'vulnerable'
p657
(lp658
F0.0
aF0.0
aF0.0
aF0.0
aF0.18164663
aF0.078538746
aF0.0
aF0.0
aF0.05665502
aF0.064283766
aF0.060253706
aF0.060183737
aF0.0
aF0.0
aF0.0845521
aF0.027729044
aF0.0
aF0.04252486
aF0.0
asS'frenzied'
p659
(lp660
F0.0
aF0.0
aF0.0
aF0.0
aF0.034606658
aF0.0955703
aF0.0
aF0.0
aF0.25536713
aF0.23040909
aF0.5259511
aF0.21495263
aF0.0
aF0.0
aF0.083997115
aF0.0
aF0.0
aF0.13940676
aF0.0
asS'medalists'
p661
(lp662
F0.0
aF0.0
aF0.056107182
aF0.02846075
aF0.06549609
aF0.0
aF0.01855919
aF0.0
aF0.044086084
aF0.0
aF0.0
aF0.007900316
aF0.0
aF0.0043282276
aF0.0016791966
aF0.01579442
aF0.03528031
aF0.0
aF0.0
asS'empowered'
p663
(lp664
F0.07504902
aF0.0
aF0.0
aF0.0
aF0.07718785
aF0.04335486
aF0.0
aF0.0
aF0.039044537
aF0.0382053
aF0.026377881
aF0.11751994
aF0.0
aF0.050553784
aF0.06055081
aF0.032233935
aF0.015361299
aF0.0783404
aF0.03365774
asS'able'
p665
(lp666
F0.03278978
aF0.003977393
aF0.008351028
aF0.0
aF0.0
aF0.0
aF0.049459185
aF0.046665806
aF0.0012263954
aF0.024093417
aF0.0
aF0.011765294
aF0.014511195
aF0.12144609
aF0.04595846
aF0.051882032
aF0.0
aF0.0
aF0.0
asS'severe'
p667
(lp668
F0.0
aF0.02862549
aF0.0
aF0.0
aF0.10297449
aF0.0
aF0.0
aF0.016750494
aF0.0
aF0.0
aF0.011328762
aF0.008249035
aF0.0
aF0.001767291
aF0.0
aF0.03809938
aF0.0
aF0.0
aF0.0
asS'shocked'
p669
(lp670
F0.08324326
aF0.028749874
aF0.079763904
aF0.027408049
aF0.060461037
aF0.07768383
aF0.40584156
aF0.8850466
aF0.04470139
aF0.10050491
aF0.048778996
aF0.29600486
aF0.03039806
aF0.07944813
aF0.14949754
aF0.035919335
aF0.04915481
aF0.15648143
aF0.038367197
asS'terrific'
p671
(lp672
F0.072270915
aF0.0
aF0.08126461
aF0.0
aF0.0
aF0.0
aF0.15746094
aF0.117310524
aF0.0
aF0.0
aF0.0
aF0.0
aF0.07508541
aF0.0809223
aF0.0
aF0.0
aF0.110574685
aF0.0
aF0.12209586
asS'repugnant'
p673
(lp674
F0.058732968
aF0.003849726
aF0.047310364
aF0.011137505
aF0.038425755
aF0.015193
aF0.14413375
aF0.0
aF0.111875765
aF0.08429201
aF0.00700243
aF0.014539252
aF0.0
aF0.0
aF0.07585029
aF0.0
aF0.0
aF0.009609165
aF0.0
asS'useless'
p675
(lp676
F0.0
aF0.0
aF0.0
aF0.0
aF0.015513628
aF0.06883878
aF0.0
aF0.0
aF0.015321883
aF0.097879834
aF0.08767333
aF0.04323241
aF0.0
aF0.0
aF0.0
aF0.010973164
aF0.0
aF0.09546069
aF0.0
asS'aggravating'
p677
(lp678
F0.0
aF0.007492526
aF0.056613795
aF0.0
aF0.04129636
aF0.041830767
aF0.0
aF0.0
aF0.0
aF0.0
aF0.173354825
aF0.29012524
aF0.019154355
aF0.0
aF0.0
aF0.0
aF0.0
aF0.0
aF0.044407602
asS'destroy'
p679
(lp680
F0.005902955
aF0.008950002
aF0.034419265
aF0.04064996
aF0.12212661
aF0.005677838
aF0.041851822
aF0.016985472
aF0.0174207
aF0.030455824
aF0.10586601
aF0.031150047
aF0.0
aF0.009870555
aF0.009304375
aF0.015224189
aF0.0
aF0.044650916
aF0.012856461
asS'encouraged'
p681
(lp682
F0.0
aF0.0
aF0.0
aF0.07452566
aF0.0
aF0.0
aF0.0
aF0.0
aF0.0
aF0.0
aF0.0
aF0.0
aF0.0
aF0.0
aF0.0
aF0.0
aF0.0
aF0.007084065
aF0.0
asS'explanation'
p683
(lp684
F0.0
aF0.0
aF0.0
aF0.080949314
aF0.025401903
aF0.019385176
aF0.024142625
aF0.094367065
aF0.033475447
aF0.037308786
aF0.008498694
aF0.03678094
aF0.0
aF0.04397008
aF0.0
aF0.02319356
aF0.09717941
aF0.0
aF0.0
asS'donot'
p685
(lp686
F0.0
aF0.0
aF0.0
aF0.0
aF0.0
aF0.0
aF0.0
aF0.0
aF0.0
aF0.0
aF0.0
aF0.0
aF0.0
aF0.0
aF0.0
aF0.0
aF0.0
aF0.0
aF0.0
asS'serene'
p687
(lp688
F0.0
aF0.006105622
aF0.0
aF0.0
aF0.0
aF0.039492514
aF0.055079583
aF0.0
aF0.0
aF0.0
aF0.0
aF0.0
aF0.0
aF0.0
aF0.021674221
aF0.0
aF0.0
aF0.015587258
aF0.022238813
asS'thrilled'
p689
(lp690
F0.20158434
aF0.0
aF0.0
aF0.0
aF0.0
aF0.0
aF0.0
aF0.116888985
aF0.006738029
aF0.005282905
aF0.047869742
aF0.037700266
aF0.039935417
aF0.000725
aF0.045568194
aF0.0
aF0.07415814
aF0.006599408
aF0.04594025
asS'reach'
p691
(lp692
F0.0
aF0.0045515797
aF0.037274484
aF0.05456587
aF0.004409602
aF0.0
aF0.013303582
aF0.0
aF0.009870741
aF0.052526996
aF0.054559443
aF0.010069513
aF0.0
aF0.013590588
aF0.0
aF0.025115574
aF0.0019348749
aF0.0015474984
aF0.0
asS'harmful'
p693
(lp694
F0.053199448
aF0.0
aF0.032792643
aF0.022523345
aF0.046122983
aF0.009369302
aF0.04892443
aF0.0
aF0.0247355
aF0.015925398
aF0.0
aF0.0
aF0.0
aF0.0
aF0.0
aF0.0
aF0.0
aF0.0
aF0.0
asS'offend'
p695
(lp696
F0.0
aF0.001813783
aF0.087775655
aF0.0
aF0.045117922
aF0.03642191
aF0.10784449
aF0.19515382
aF0.002451682
aF0.076300755
aF0.004972885
aF0.57252944
aF0.0
aF0.057014205
aF0.0
aF0.13828325
aF0.053225134
aF0.0
aF0.022538535
asS'reverence'
p697
(lp698
F0.09910804
aF0.24417907
aF0.5810769
aF0.03090352
aF0.713454
aF0.2094206
aF0.33397302
aF0.031751353
aF0.43164584
aF0.23545296
aF0.039903305
aF0.06079847
aF0.13016263
aF0.13503626
aF0.24681285
aF0.19421591
aF0.34308714
aF0.19433698
aF0.12212191
asS'nothing'
p699
(lp700
F0.0
aF0.0
aF0.034813456
aF0.014419983
aF0.13346905
aF0.018044248
aF0.0
aF0.016963156
aF0.0
aF0.0433834
aF0.0003554077
aF0.0
aF0.0
aF0.030778619
aF0.0
aF0.041450653
aF0.0
aF0.0
aF0.10122955
asS'alarmed'
p701
(lp702
F0.0
aF0.0
aF0.0
aF0.0
aF0.6119221
aF0.29177737
aF0.0
aF0.0
aF0.20480065
aF0.220723
aF0.10050656
aF0.13270728
aF0.0
aF0.0
aF0.09341995
aF0.22190654
aF0.0
aF0.08807462
aF0.0
asS'extremely'
p703
(lp704
F0.0
aF0.02058552
aF0.0
aF0.029292338
aF0.0
aF0.0
aF0.07376779
aF0.09475816
aF0.0
aF0.0
aF0.0
aF0.0
aF0.019403983
aF0.024703043
aF0.0
aF0.0
aF0.0
aF0.0
aF0.0
asS'GOP'
p705
(lp706
F0.0
aF0.0
aF0.0
aF0.0
aF0.0
aF0.0
aF0.0
aF0.0
aF0.0
aF0.0
aF0.0
aF0.0
aF0.0
aF0.0
aF0.0
aF0.0
aF0.0
aF0.0
aF0.0
asS'hypocrite'
p707
(lp708
F0.0794614
aF0.0
aF0.038576275
aF0.017317623
aF0.026933964
aF0.014725827
aF0.034173578
aF0.053285953
aF0.11907569
aF0.043435678
aF0.031782757
aF0.0
aF0.001444005
aF0.016549751
aF0.008634376
aF0.044548497
aF0.0
aF0.0
aF0.08813883
asS'don'
p709
(lp710
F0.0
aF0.0
aF0.0
aF0.0
aF0.0
aF0.0
aF0.0
aF0.0
aF0.0
aF0.0
aF0.0
aF0.0
aF0.0
aF0.0
aF0.0
aF0.0
aF0.0
aF0.0
aF0.0
asS'enthusiastic'
p711
(lp712
F0.032923248
aF0.040564757
aF0.1347467
aF0.08963739
aF0.0
aF0.0
aF0.039004583
aF0.014045783
aF0.024503943
aF0.057753436
aF0.048996914
aF0.05002144
aF0.058969196
aF0.0
aF0.0
aF0.035047267
aF0.054469906
aF0.063031055
aF0.03469921
asS'proud'
p713
(lp714
F0.085154645
aF0.078071445
aF0.1873514
aF0.041223705
aF0.06745678
aF0.0
aF0.16470127
aF0.1828958
aF0.0
aF0.0
aF0.0
aF0.078351885
aF0.0
aF0.048078336
aF0.015012073
aF0.07453403
aF0.06881417
aF0.001124588
aF0.060043436
asS'upset'
p715
(lp716
F0.085079096
aF0.0
aF0.0
aF0.007754197
aF0.0
aF0.02113049
aF0.017865075
aF0.19428615
aF0.0
aF0.0
aF0.0
aF0.0
aF0.0
aF0.0
aF0.013855463
aF0.0
aF1.95e-06
aF0.0
aF0.0
asS'astonishing'
p717
(lp718
F0.023128293
aF0.082795605
aF0.17565769
aF0.0
aF0.0
aF0.0
aF0.3798991
aF0.28731486
aF0.0
aF0.0
aF0.0
aF0.0
aF0.0
aF0.06177716
aF0.0
aF0.0
aF0.0176023
aF0.0
aF0.037808474
asS'Edge'
p719
(lp720
F0.008351706
aF0.008427054
aF0.01027812
aF0.026693564
aF0.019349242
aF0.048110805
aF0.0
aF0.0
aF0.0
aF0.0
aF0.05149958
aF0.024755234
aF0.056061376
aF0.047346108
aF0.053882875
aF0.0
aF0.0
aF0.0076693655
aF0.0
asS'guiltily'
p721
(lp722
F0.10682509
aF0.0
aF0.057444453
aF0.08456131
aF0.0
aF0.0
aF0.13910514
aF0.014034295
aF0.026973706
aF0.057105683
aF0.0
aF0.0
aF0.0
aF0.0
aF0.07385827
aF0.05933871
aF0.013606696
aF0.017287914
aF0.011084501
asS'jittery'
p723
(lp724
F0.0
aF0.0
aF0.0
aF0.0
aF0.15848066
aF0.2847799
aF0.0
aF0.0
aF0.10938768
aF0.025407564
aF0.0
aF0.07132121
aF0.0
aF0.0
aF0.0
aF0.010651778
aF0.0
aF0.0
aF0.0
asS'responded'
p725
(lp726
F0.007914892
aF0.0
aF0.031233374
aF0.51526314
aF0.0
aF0.07454766
aF0.045716338
aF0.1101114
aF0.0
aF0.041212246
aF0.011279958
aF0.040293418
aF0.0050641606
aF0.019227618
aF0.0
aF0.021465385
aF0.07515788
aF0.0
aF0.043964326
asS'coffee..'
p727
(lp728
F0.0
aF0.0
aF0.0
aF0.0099269515
aF0.0
aF0.0023461548
aF0.016856154
aF0.0
aF0.0
aF0.0
aF0.027844988
aF0.0
aF0.0
aF0.004152766
aF0.00018489447
aF0.0
aF0.01695172
aF0.018502256
aF0.0
asS'bomb'
p729
(lp730
F0.018808514
aF0.0
aF0.04164266
aF0.053463798
aF0.005905979
aF0.0
aF0.006803502
aF0.052099306
aF0.02825244
aF0.0
aF0.00291647
aF0.004133785
aF0.012413821
aF0.005127364
aF0.001375678
aF0.0
aF0.001395547
aF0.0
aF0.007549238
asS'tragically'
p731
(lp732
F0.06647998
aF0.04842188
aF0.033953227
aF0.021996066
aF0.035498977
aF0.0
aF0.03310373
aF0.024829239
aF0.0
aF0.022671517
aF0.046048183
aF0.06471979
aF0.0
aF0.03531418
aF0.24446726
aF0.0707789
aF0.038229216
aF0.23909892
aF0.1147799
asS'rapture'
p733
(lp734
F0.4531952
aF0.15474659
aF0.24484873
aF0.0
aF0.0
aF0.0
aF0.44867375
aF0.18939918
aF0.0
aF0.0
aF0.0
aF0.0
aF0.3295732
aF0.0
aF0.0
aF0.0
aF0.0
aF0.0
aF0.0991053
asS'pennies'
p735
(lp736
F0.0
aF0.0026927115
aF0.03210804
aF0.043837503
aF0.018977322
aF0.03169258
aF0.010088477
aF0.0
aF0.0
aF0.03409667
aF0.0
aF0.0
aF0.022099404
aF0.050369494
aF0.0
aF0.0
aF0.10481456
aF0.0
aF0.0
asS'bad'
p737
(lp738
F0.022226097
aF0.027995605
aF0.032851942
aF0.0
aF0.08207887
aF0.0
aF0.0474762
aF0.0
aF0.041656855
aF0.02045976
aF0.009371987
aF0.023650093
aF0.0
aF0.04018136
aF0.042440165
aF0.061670892
aF0.026264966
aF0.026581574
aF0.078305125
asS'celebrities'
p739
(lp740
F0.0
aF0.0
aF0.1259294
aF0.082401045
aF0.006245592
aF0.015290791
aF0.061356705
aF0.0
aF0.010007016
aF0.06760027
aF0.02726063
aF0.0
aF0.038748104
aF0.144073634
aF0.0
aF0.0
aF0.0
aF0.010367412
aF0.08199628
asS'tearful'
p741
(lp742
F0.08092992
aF0.0
aF0.06675607
aF0.09605785
aF0.03806925
aF0.0
aF0.16120726
aF0.06388682
aF0.0
aF0.043357156
aF0.043909766
aF0.023269596
aF0.058842447
aF0.0
aF0.2239367
aF0.0
aF0.0
aF0.25969714
aF0.07023271
asS'desolate'
p743
(lp744
F0.0
aF0.031501852
aF0.010408516
aF0.00182
aF0.02518491
aF0.050378032
aF0.002814495
aF0.0
aF0.025254533
aF0.0
aF0.03386498
aF0.0
aF0.023638772
aF0.024581559
aF0.05265042
aF0.0
aF0.001103818
aF0.017632984
aF0.034887955
asS'gratified'
p745
(lp746
F0.076545104
aF0.0
aF0.0421701
aF0.0
aF0.052254573
aF0.08647753
aF0.025631055
aF0.002817936
aF0.21766216
aF0.1830316
aF0.06534928
aF0.09478973
aF0.0
aF0.06428813
aF0.082816504
aF0.018354835
aF0.0
aF0.07883266
aF0.077572726
asS'fear'
p747
(lp748
F0.20384175
aF0.22119698
aF0.15710238
aF0.026508734
aF1.0
aF0.78686124
aF0.07635353
aF0.08333019
aF0.29118448
aF0.22346824
aF0.25959888
aF0.39741775
aF0.25344673
aF0.16831927
aF0.175559
aF0.08571103
aF0.058464415
aF0.20203881
aF0.13136688
asS'fine'
p749
(lp750
F0.0
aF0.0
aF0.0
aF0.0
aF0.0
aF0.047020804
aF0.0
aF0.047020804
aF0.0
aF0.0
aF0.0
aF0.000972
aF0.0
aF0.0
aF0.0
aF0.0
aF0.02170934
aF0.0
aF0.0
asS'debate'
p751
(lp752
F0.0
aF0.0
aF0.0
aF0.0
aF0.0
aF0.0
aF0.0
aF0.0
aF0.0
aF0.0
aF0.0
aF0.0
aF0.0
aF0.0
aF0.0
aF0.0
aF0.0
aF0.0
aF0.0
asS'adoration'
p753
(lp754
F0.23805127
aF0.11041565
aF0.99874127
aF0.20307533
aF0.0
aF0.0
aF0.3801248
aF0.08218862
aF0.0
aF0.0
aF0.0
aF0.0
aF0.17493084
aF0.10069592
aF0.0
aF0.0
aF0.25621343
aF0.0
aF0.60914546
asS'aggravate'
p755
(lp756
F0.0
aF0.007492526
aF0.056613795
aF0.0
aF0.04129636
aF0.041830767
aF0.0
aF0.0
aF0.0
aF0.0
aF0.173354825
aF0.29012524
aF0.019154355
aF0.0
aF0.0
aF0.0
aF0.0
aF0.0
aF0.044407602
asS'nervous'
p757
(lp758
F0.0
aF0.0
aF0.0
aF0.0
aF0.21137568
aF0.2559362
aF0.0
aF0.0
aF0.03962245
aF0.0750855
aF0.0876245
aF0.07185487
aF0.0
aF0.0
aF0.0
aF0.0
aF0.0
aF0.006535216
aF0.0
asS'fans'
p759
(lp760
F0.007193329
aF0.00342363
aF0.054668758
aF0.04543348
aF0.0
aF0.0
aF0.014681561
aF0.045068294
aF0.010215825
aF0.07277593
aF0.110336944
aF0.007526373
aF0.042815115
aF0.03852369
aF0.0
aF0.0
aF0.10617708
aF0.030710146
aF0.614585
asS'unhappy'
p761
(lp762
F0.0
aF0.0
aF0.0
aF0.0
aF0.17822982
aF0.07461518
aF0.040715046
aF0.16256717
aF0.06641555
aF0.024705246
aF0.07756214
aF0.0
aF0.0
aF0.0
aF0.5291647
aF0.16619791
aF0.0
aF0.14792544
aF0.0
asS'failed'
p763
(lp764
F0.0
aF0.025175642
aF0.05440406
aF0.019385
aF0.001403692
aF0.0
aF0.010956165
aF0.069145545
aF0.061337806
aF0.05117732
aF0.0
aF0.017393155
aF0.0
aF0.0
aF0.017748477
aF0.34839597
aF0.0
aF0.0
aF0.0
asS'black'
p765
(lp766
F0.0
aF0.014868919
aF0.0043074605
aF0.067999974
aF0.057196844
aF0.038378347
aF0.071637586
aF0.039762393
aF0.10158216
aF0.05216157
aF0.06280996
aF0.060605086
aF0.04017042
aF0.0
aF0.002018798
aF0.0
aF0.010261989
aF0.0
aF0.0
asS'outrage'
p767
(lp768
F0.01190211
aF0.04681357
aF0.0
aF0.01480929
aF0.0
aF0.0
aF0.2138839
aF0.194760135
aF0.0
aF0.057527043
aF0.7981452
aF0.48740737
aF0.0
aF0.021435402
aF0.0
aF0.52612355
aF0.0
aF0.014787049
aF0.0
asS'adequate'
p769
(lp770
F0.0
aF0.0
aF0.03168105
aF0.0
aF0.0
aF0.03264589
aF0.04492927
aF0.0
aF0.040273026
aF0.003357015
aF0.03690569
aF0.017132483
aF0.001041392
aF0.0
aF0.0
aF0.016421417
aF0.0
aF0.0
aF0.03009035
asS'hope'
p771
(lp772
F0.0
aF0.018832184
aF0.0
aF0.02470861
aF0.0
aF0.002767969
aF0.0
aF0.0
aF0.015640065
aF0.0
aF0.0
aF0.0
aF0.0
aF0.0
aF0.005546751
aF0.028480114
aF0.0
aF0.0
aF0.0
asS'indignant'
p773
(lp774
F0.0
aF0.028045097
aF0.08829234
aF0.008143819
aF0.071334116
aF0.0
aF0.28229234
aF0.2477135
aF0.1417492
aF0.23518653
aF0.13654126
aF0.18231504
aF0.0
aF0.016610052
aF0.068501495
aF0.20484155
aF0.0
aF0.10384637
aF0.0
asS'photographs'
p775
(lp776
F0.01123474
aF0.0
aF0.06892086
aF0.00015751134
aF0.00459151
aF0.028796772
aF0.0643334
aF0.0
aF0.05439767
aF0.02920977
aF0.0077768033
aF0.0077055744
aF0.02378298
aF0.08408446
aF0.004090993
aF0.0061122947
aF0.031247845
aF0.016615266
aF0.03479162
asS'gratify'
p777
(lp778
F0.076545104
aF0.0
aF0.0421701
aF0.0
aF0.052254573
aF0.08647753
aF0.025631055
aF0.002817936
aF0.21766216
aF0.1830316
aF0.06534928
aF0.09478973
aF0.0
aF0.06428813
aF0.082816504
aF0.018354835
aF0.0
aF0.07883266
aF0.077572726
asS'publicity'
p779
(lp780
F0.0
aF0.0
aF0.08384425
aF0.08305499
aF0.087894864
aF0.1228842
aF0.016951762
aF0.127034
aF0.073740035
aF0.03684849
aF0.016895033
aF0.039705478
aF0.13694994
aF0.042568605
aF0.010578404
aF0.07359441
aF0.043258652
aF0.029034076
aF0.009333688
asS'mercy'
p781
(lp782
F0.18257251
aF0.03133204
aF0.08477703
aF0.11919296
aF0.11778648
aF0.10003718
aF0.0
aF0.03464693
aF0.021815138
aF0.0
aF0.11618022
aF0.10192444
aF0.0
aF0.013284601
aF0.0
aF0.0
aF0.052208867
aF0.08086133
aF0.27506348
asS'condemning'
p783
(lp784
F0.0
aF0.0
aF0.0
aF0.0
aF0.1505731
aF0.0
aF0.0
aF0.0
aF0.12545513
aF0.0
aF0.054144863
aF0.11319909
aF0.0
aF0.0
aF0.0
aF0.0
aF0.0
aF0.0
aF0.0
asS'salue'
p785
(lp786
F0.0
aF0.0
aF0.0
aF0.0
aF0.0
aF0.0
aF0.0
aF0.0
aF0.0
aF0.0
aF0.0
aF0.0
aF0.0
aF0.0
aF0.0
aF0.0
aF0.0
aF0.0
aF0.0
asS'sunny'
p787
(lp788
F0.063551545
aF0.12301402
aF0.014137324
aF0.0
aF0.0
aF0.0
aF0.015563063
aF0.0
aF0.0
aF0.0
aF0.0
aF0.0
aF0.0
aF0.0
aF0.0
aF0.0
aF0.0
aF0.0
aF0.011292051
asS'lucky'
p789
(lp790
F0.052787457
aF0.120981
aF0.058705986
aF0.0
aF0.051008232
aF0.030412598
aF0.12125641
aF0.16907023
aF0.0
aF0.0
aF0.0
aF0.0
aF0.039175
aF0.060243778
aF0.0
aF0.0
aF0.043525074
aF0.0
aF0.0
asS'bear'
p791
(lp792
F0.02097562
aF0.06290409
aF0.0
aF0.55376893
aF0.009538913
aF0.045720156
aF0.0034258226
aF0.027012803
aF0.057051726
aF0.07716156
aF0.04072312
aF0.01814082
aF0.03068641
aF0.0017619034
aF0.05267118
aF0.01205355
aF0.0
aF0.044297222
aF0.12579703
asS'resent'
p793
(lp794
F0.0
aF0.0
aF0.0
aF0.0
aF0.16920628
aF0.065779686
aF0.0
aF0.0
aF0.14488256
aF0.045867737
aF0.098011106
aF0.1857104
aF0.0
aF0.0
aF0.011915307
aF0.17539753
aF0.0
aF0.0
aF0.04864677
asS'courage'
p795
(lp796
F0.06974077
aF0.25549436
aF0.2710719
aF0.023171432
aF0.010000627
aF0.023417613
aF0.058729503
aF0.02840118
aF0.0
aF0.0
aF0.021167444
aF0.0
aF0.0
aF0.0
aF0.027736086
aF0.005023288
aF0.13702427
aF0.040164426
aF0.12759891
asS'nearly'
p797
(lp798
F0.04890057
aF0.010286541
aF0.053103298
aF0.0
aF0.03734049
aF0.0729534
aF0.095359996
aF0.071889244
aF0.042296696
aF0.0853585
aF0.071564764
aF0.0
aF0.0
aF0.00050680316
aF0.030836249
aF0.050289243
aF0.03519434
aF0.064924054
aF0.0
asS'cheat'
p799
(lp800
F0.049502224
aF0.0029524714
aF0.010154246
aF0.057978723
aF0.006636929
aF0.035636064
aF0.025574202
aF0.07635255
aF0.0
aF0.016949467
aF0.0
aF0.03469364
aF0.0003740659
aF0.0
aF0.057651553
aF0.003719205
aF0.0
aF0.045284793
aF0.05975763
asS'smug'
p801
(lp802
F0.08569437
aF0.1715707
aF0.073615424
aF0.07264196
aF0.028442642
aF0.1881228
aF0.0
aF0.0
aF0.14238821
aF0.17113236
aF0.0
aF0.07932606
aF0.0
aF0.0
aF0.13133171
aF0.05490576
aF0.0
aF0.0
aF0.0
asS'nasty'
p803
(lp804
F0.0
aF0.0
aF0.0
aF0.0
aF0.06818924
aF0.0
aF0.0
aF0.0
aF0.050397426
aF0.06296462
aF0.08676529
aF0.0
aF0.0
aF0.0
aF0.0
aF0.10141699
aF0.0
aF0.0
aF0.0
asS'Soviet'
p805
(lp806
F0.0
aF0.0
aF0.0
aF0.0
aF0.0
aF0.0
aF0.0
aF0.0
aF0.0
aF0.0
aF0.0
aF0.0
aF0.0
aF0.0
aF0.0
aF0.0
aF0.0
aF0.0
aF0.0
asS'Italian'
p807
(lp808
F0.0
aF0.0
aF0.0
aF0.0
aF0.0
aF0.0
aF0.0
aF0.0
aF0.0
aF0.0
aF0.0
aF0.0
aF0.0
aF0.0
aF0.0
aF0.0
aF0.0
aF0.0
aF0.0
asS'Olympic'
p809
(lp810
I0
aI0
aI0
aI0
aI0
aI0
aI0
aI0
aI0
aI0
aI0
aI0
aI0
aI0
aI0
aI0
aI0
aI0
aI0
asS'Suddenly'
p811
(lp812
F0.18918829
aF0.0
aF0.039140724
aF0.0
aF0.0682771
aF0.052324105
aF0.17658941
aF0.1609528
aF0.0
aF0.0
aF0.120223306
aF0.03881338
aF0.053365707
aF0.0
aF0.00029906636
aF0.0
aF0.0
aF0.104732916
aF0.063171044
asS'shy'
p813
(lp814
F0.005759399
aF0.0
aF0.0558218
aF0.015054516
aF0.02981467
aF0.06098268
aF0.028158836
aF0.047786903
aF0.047310118
aF0.02035341
aF0.0
aF0.0
aF0.0
aF0.0
aF0.054446828
aF0.049080465
aF0.04648712
aF0.039587736
aF0.010020984
asS'morning'
p815
(lp816
F0.06875282
aF0.00049187674
aF0.049851112
aF0.0
aF0.0
aF0.00014513718
aF0.009465509
aF0.06176823
aF0.0
aF0.0
aF0.0
aF0.0
aF0.0
aF0.0039181155
aF0.0216286
aF0.0
aF0.020083448
aF0.0
aF0.026338417
asS'barbaric'
p817
(lp818
F0.0
aF0.0
aF0.0488401
aF0.0
aF0.0
aF0.06528726
aF0.052572172
aF0.087804854
aF0.043722615
aF0.000545
aF0.021011088
aF0.0
aF0.0
aF0.12395798
aF0.04976091
aF0.11389468
aF0.001227608
aF0.067305714
aF0.017172972
asS'nominate'
p819
(lp820
F0.0
aF0.0
aF0.06978757
aF0.13110532
aF0.05136831
aF0.008770648
aF0.015844444
aF0.041632112
aF0.025737619
aF0.012488929
aF0.0
aF0.010262658
aF0.0
aF0.0070988867
aF0.03316617
aF0.12194315
aF0.12782313
aF0.0051811226
aF0.0240262
asS'SerenaWilliams'
p821
(lp822
F0.0
aF0.0
aF0.0
aF0.0
aF0.0
aF0.0
aF0.0
aF0.0
aF0.0
aF0.0
aF0.0
aF0.0
aF0.0
aF0.0
aF0.0
aF0.0
aF0.0
aF0.0
aF0.0
asS'repulsed'
p823
(lp824
F0.0
aF0.0
aF0.0
aF0.0
aF0.025751252
aF0.13979526
aF0.0
aF0.0
aF0.0897872
aF0.02136246
aF0.06444775
aF0.08203371
aF0.0
aF0.0
aF0.0
aF0.0
aF0.0
aF0.0
aF0.0
asS'gleeful'
p825
(lp826
F0.30941856
aF0.07834751
aF0.13258648
aF0.015680684
aF0.0
aF0.0
aF0.34136766
aF0.047959726
aF0.0
aF0.0
aF0.0
aF0.0
aF0.0
aF0.0
aF0.0
aF0.0
aF0.0
aF0.0
aF0.009927299
asS'worked up'
p827
(lp828
F0.015872052
aF0.02558864
aF0.07503117
aF0.010002401
aF0.02360243
aF0.030549603
aF0.038322803
aF0.0
aF0.06059291
aF0.004483917
aF0.015154679
aF0.00521849
aF0.02485507
aF0.012434579
aF0.009817619
aF0.05599951
aF0.008320652
aF0.0
aF0.047741618
asS'humiliation'
p829
(lp830
F0.0
aF0.0
aF0.0
aF0.0
aF0.15487532
aF0.18499348
aF0.0
aF0.0
aF0.31638926
aF0.29594943
aF0.16234003
aF0.23278745
aF0.0
aF0.0
aF0.37490085
aF0.17050989
aF0.0
aF0.3594376
aF0.0
asS'relative'
p831
(lp832
F0.016864076
aF0.004283268
aF0.01667619
aF0.009667638
aF0.036809146
aF0.021017285
aF0.048052456
aF0.0003127877
aF0.0
aF0.0094708465
aF0.06384671
aF0.07842037
aF0.058465924
aF0.03058697
aF0.10298631
aF0.00020340004
aF0.030488683
aF0.16892453
aF0.19283108
asS'depends'
p833
(lp834
F0.0033363583
aF0.06456321
aF0.09689421
aF0.012993279
aF0.01248225
aF0.0
aF0.0906311
aF0.07017384
aF0.0
aF0.0
aF0.0
aF0.0
aF0.031887457
aF0.006896954
aF0.0
aF0.009440221
aF0.0
aF0.0
aF5.0321392e-05
asS'desperate'
p835
(lp836
F0.0
aF0.0
aF0.0
aF0.0
aF0.061489977
aF0.0
aF0.0
aF0.0
aF0.0
aF0.0
aF0.15971844
aF0.05603722
aF0.0
aF0.0
aF0.07195853
aF0.032535747
aF0.0
aF0.105119415
aF0.0
asS'tender'
p837
(lp838
F0.06752385
aF0.0
aF0.07751487
aF0.14709203
aF0.006580954
aF0.0
aF0.0
aF0.0
aF0.006284611
aF0.0
aF0.006552691
aF0.01159807
aF0.030646568
aF0.037848894
aF0.11815571
aF0.054833017
aF0.0
aF0.13835701
aF0.20127347
asS'miserable'
p839
(lp840
F0.10392103
aF0.0
aF0.021545488
aF0.0
aF0.0
aF0.036399715
aF0.024768297
aF0.0
aF0.03984235
aF0.07939523
aF0.030818002
aF0.037537187
aF0.0
aF0.0
aF0.05826014
aF0.03475806
aF0.0
aF0.10325572
aF0.09688782
asS'sport'
p841
(lp842
F0.03507042
aF0.013869412
aF0.05338961
aF0.0
aF0.07844192
aF0.010460718
aF0.040438782
aF0.0
aF0.010993833
aF0.016356584
aF0.037217863
aF0.0
aF0.043154415
aF0.09514049
aF0.0053259833
aF0.047967188
aF0.0
aF0.0
aF0.17827642
asS'best'
p843
(lp844
F0.038757294
aF0.0
aF0.038226526
aF0.000334
aF0.0
aF0.011931212
aF0.030542018
aF0.1167302
aF0.047032792
aF0.05410001
aF0.08499039
aF0.029546417
aF0.0
aF0.0657942
aF0.029001787
aF0.08144009
aF0.030734655
aF0.07539777
aF0.20299055
asS'wonder'
p845
(lp846
F0.09550667
aF0.034951966
aF0.3308301
aF0.0039587
aF0.25526497
aF0.06895648
aF0.5036934
aF0.3141965
aF0.089285865
aF0.09497867
aF0.045800664
aF0.07801608
aF0.07574555
aF0.53353185
aF0.05741535
aF0.04861064
aF0.064914264
aF0.05515509
aF0.13564306
asS'PR'
p847
(lp848
F0.0
aF0.01074508
aF0.025318276
aF0.0068197926
aF0.0
aF0.0
aF0.0
aF0.059315097
aF0.025073316
aF0.07808529
aF0.0
aF0.0
aF0.0
aF0.032020565
aF0.0013654638
aF0.013444143
aF0.0
aF0.062804416
aF0.023067622
asS'outrageous'
p849
(lp850
F0.01190211
aF0.04681357
aF0.0
aF0.01480929
aF0.0
aF0.0
aF0.2138839
aF0.194760135
aF0.0
aF0.057527043
aF0.7981452
aF0.48740737
aF0.0
aF0.021435402
aF0.0
aF0.52612355
aF0.0
aF0.014787049
aF0.0
asS'forlorn'
p851
(lp852
F0.011197737
aF0.043619134
aF0.0
aF0.0
aF0.058228992
aF0.050786193
aF0.0
aF0.0
aF0.058837857
aF0.07664785
aF0.04694061
aF0.010921233
aF0.0
aF0.0
aF0.19832143
aF0.0
aF0.0
aF0.1219439
aF0.0
asS'terrified'
p853
(lp854
F0.17138726
aF0.05768072
aF0.033827323
aF0.0
aF0.8191474
aF0.25400212
aF0.2681381
aF0.19056721
aF0.15177536
aF0.17463273
aF0.2929557
aF0.21707225
aF0.14116004
aF0.0
aF0.21078636
aF0.004422061
aF0.001209636
aF0.27385518
aF0.0
asS'written'
p855
(lp856
F0.0036963853
aF0.0
aF0.0069560413
aF0.062202826
aF0.0062792734
aF0.015050483
aF0.0
aF0.019055517
aF0.09030995
aF0.023679908
aF0.045877375
aF0.020843545
aF0.003031961
aF0.049128216
aF0.0091053825
aF0.02954873
aF0.0252813
aF0.029637406
aF0.09127382
asS'antagonistically'
p857
(lp858
F0.0
aF0.0
aF0.0
aF0.0
aF0.036796615
aF0.04231519
aF0.0
aF0.0
aF0.1911199
aF0.0
aF0.0
aF0.07510067
aF0.0
aF0.0
aF0.0
aF0.26082771
aF0.0
aF0.0
aF0.0
asS'horrible'
p859
(lp860
F0.0
aF0.0
aF0.0
aF0.0
aF0.104173675
aF0.053651318
aF0.0
aF0.0
aF0.0
aF0.08371065
aF0.12346253
aF0.0
aF0.0
aF0.0
aF0.12742758
aF0.076148376
aF0.0
aF0.18930936
aF0.0
asS'woe'
p861
(lp862
F0.0
aF0.0
aF0.0
aF0.0
aF0.099978626
aF0.13727844
aF0.0
aF0.0
aF0.12309389
aF0.08465543
aF0.1276733
aF0.120411836
aF0.0
aF0.0
aF0.3211465
aF0.08733607
aF0.0
aF0.32545975
aF0.050576072
asS'racket'
p863
(lp864
F0.0
aF0.01673254
aF0.0
aF0.07243837
aF0.0020783248
aF0.07644954
aF0.0634068
aF0.043903414
aF0.0
aF0.041006748
aF0.059451118
aF0.0
aF0.007881708
aF0.028885106
aF0.0
aF0.0
aF0.0
aF0.0
aF0.047448065
asS'afflicted'
p865
(lp866
F0.0
aF0.018153258
aF0.01610469
aF0.028953087
aF0.004231624
aF0.0
aF0.0
aF0.0
aF0.0
aF0.0
aF0.068409555
aF0.0
aF0.0
aF0.03428218
aF0.0
aF0.0
aF0.0
aF0.011501359
aF0.040108636
asS'frustrated'
p867
(lp868
F0.0
aF0.0
aF0.0
aF0.0
aF0.109216176
aF0.12388414
aF0.0
aF0.0
aF0.11030369
aF0.22130288
aF0.21831605
aF0.39617407
aF0.0
aF0.0
aF0.1682844
aF0.12549242
aF0.0
aF0.0
aF0.0
asS'indecisive'
p869
(lp870
F0.0
aF0.015146177
aF0.014964242
aF0.053942487
aF0.020553395
aF0.04432022
aF0.013240787
aF0.026613446
aF0.0
aF0.027717525
aF0.0
aF0.0
aF0.021533549
aF0.006619205
aF0.0
aF0.014344143
aF0.0
aF0.0
aF0.0
asS'lazy'
p871
(lp872
F0.0
aF0.020709358
aF0.020240227
aF0.09133327
aF0.03688342
aF0.043979038
aF0.0
aF0.0
aF0.0
aF0.037922952
aF0.021888597
aF0.0
aF0.0
aF0.020393847
aF0.0
aF0.0
aF0.0
aF0.0
aF0.03302925
asS'useful'
p873
(lp874
F0.0
aF0.05645089
aF0.0
aF0.0
aF0.0
aF0.0
aF0.0
aF0.0
aF0.0
aF0.0
aF0.0
aF0.0
aF0.0
aF0.15837826
aF0.0
aF0.0
aF0.0
aF0.0
aF0.06611174
asS'vows'
p875
(lp876
F0.008990881
aF0.0
aF0.0
aF0.0
aF0.029564412
aF0.0
aF0.021052964
aF0.04692694
aF0.0050052456
aF0.0
aF0.07440689
aF0.032700405
aF0.0
aF0.032691594
aF0.034557782
aF0.07243416
aF0.0
aF0.114488944
aF0.10758357
asS'feisty'
p877
(lp878
F0.0
aF0.05172805
aF0.030489568
aF0.0
aF0.0
aF0.0
aF0.0
aF0.0
aF0.0
aF0.0
aF0.035346292
aF0.0
aF0.0
aF0.03766789
aF0.0
aF0.0
aF0.0
aF0.0
aF0.034520045
asS'pained'
p879
(lp880
F0.06483823
aF0.010915868
aF0.13553242
aF0.014920784
aF0.06763035
aF0.056998577
aF0.36587676
aF0.19165331
aF0.030768745
aF0.23527636
aF0.052090023
aF0.12260665
aF0.012109027
aF0.022323556
aF0.33788258
aF0.17520368
aF0.03845382
aF0.22981161
aF0.0
asS'weary'
p881
(lp882
F0.029113986
aF0.05731765
aF0.006224829
aF0.13517478
aF0.10227561
aF0.0
aF0.05492092
aF0.014147689
aF0.0
aF0.09947037
aF0.015187047
aF0.070156425
aF0.057140127
aF0.041320253
aF0.009137197
aF0.04533636
aF0.0
aF0.006221858
aF0.0
asS'disdainful'
p883
(lp884
F0.0
aF0.0
aF0.0
aF0.0
aF0.04453397
aF0.0
aF0.0
aF0.0
aF0.23579358
aF0.19486059
aF0.0
aF0.059236605
aF0.0
aF0.0
aF0.0
aF0.18058553
aF0.0
aF0.0
aF0.0
asS'approval'
p885
(lp886
F0.085756786
aF0.063401654
aF0.5513505
aF0.78290665
aF0.04809649
aF0.0
aF0.024960151
aF0.0
aF0.07297407
aF0.09326539
aF0.05360472
aF0.035316393
aF0.090757295
aF0.03606988
aF0.002294079
aF0.3444195
aF0.10494374
aF0.052457888
aF0.023551656
asS'boss'
p887
(lp888
F0.0
aF0.007536273
aF0.005621436
aF0.03494685
aF0.10422613
aF0.005444862
aF0.0
aF0.02331044
aF0.0
aF0.0
aF0.028447427
aF0.038796436
aF0.0
aF0.0
aF0.0
aF0.0
aF0.010217455
aF0.0
aF0.09707329
asS'grieved'
p889
(lp890
F0.3529951
aF0.12911074
aF0.29674992
aF0.03373591
aF0.20203881
aF0.23772167
aF0.32189748
aF0.08177853
aF0.297428
aF0.32860878
aF0.46263346
aF0.48467416
aF0.07418213
aF0.03463469
aF1.0
aF0.1645311
aF0.13579692
aF1.0
aF0.22652683
asS'reaction'
p891
(lp892
F0.051617008
aF0.024023473
aF0.103845835
aF0.142869
aF0.10308579
aF0.085153624
aF0.19649042
aF0.17615333
aF0.072395265
aF0.16282184
aF0.12975444
aF0.20116763
aF0.072286785
aF0.00671486
aF0.056374136
aF0.1027957
aF0.10623061
aF0.07223154
aF0.0
asS'empathy'
p893
(lp894
F0.1538565
aF0.24138577
aF0.49613276
aF0.16211212
aF0.0
aF0.0
aF0.23982541
aF0.085140966
aF0.0
aF0.0
aF0.0
aF0.0
aF0.07229498
aF0.085140966
aF0.0
aF0.0
aF0.29965308
aF0.0
aF0.20341559
asS'Penetta'
p895
(lp896
F0.0
aF0.0
aF0.0
aF0.0
aF0.0
aF0.0
aF0.0
aF0.0
aF0.0
aF0.0
aF0.0
aF0.0
aF0.0
aF0.0
aF0.0
aF0.0
aF0.0
aF0.0
aF0.0
asS'sacrificing'
p897
(lp898
F0.0463194
aF0.024118995
aF0.060045768
aF0.046956245
aF0.01271496
aF0.0
aF0.0
aF0.0
aF0.0
aF0.0
aF0.04118159
aF0.0
aF0.0
aF0.07372876
aF0.019860871
aF0.0
aF0.04192223
aF0.056879465
aF0.06563131
asS'hesitant'
p899
(lp900
F0.0
aF0.107894845
aF0.029071175
aF0.041203097
aF0.04646751
aF0.13087247
aF0.021857973
aF0.004165672
aF0.04446759
aF0.042516418
aF0.007257115
aF0.029074775
aF0.037794992
aF0.026911005
aF0.022010924
aF0.008301761
aF0.04230187
aF0.033407293
aF0.0
asS'career'
p901
(lp902
F0.0
aF0.0021357625
aF0.0
aF0.01690606
aF0.012160741
aF0.019640401
aF0.0054128235
aF0.028803302
aF0.036005158
aF0.027608246
aF0.020076906
aF0.020380383
aF0.0
aF0.13241924
aF0.0
aF0.0
aF0.01354807
aF0.017894639
aF0.08346985
asS'fault'
p903
(lp904
F0.019018985
aF0.025837604
aF0.054280605
aF0.01934092
aF0.037970822
aF0.037404183
aF0.015830915
aF0.059396386
aF0.0
aF0.022996016
aF0.00566719
aF0.01349405
aF0.01984971
aF0.01698703
aF0.0013210594
aF0.09312387
aF0.0
aF0.0120643005
aF0.07322352
asS'taking'
p905
(lp906
F0.0
aF0.03596773
aF0.0
aF0.000624581
aF0.0
aF0.0
aF0.0
aF0.0
aF0.015039309
aF0.0
aF0.0
aF0.0
aF0.0
aF0.002413955
aF0.0
aF0.0072638597
aF0.02819942
aF0.0
aF0.0
asS'drug'
p907
(lp908
F0.0
aF0.040288292
aF0.01110766
aF0.024746688
aF0.06591924
aF0.07099491
aF0.021884361
aF0.0027843046
aF0.018180862
aF0.0
aF0.028593857
aF0.0
aF0.022893181
aF0.006193175
aF0.0
aF0.07790443
aF0.0
aF0.0
aF0.0
asS'MariaSharapova'
p909
(lp910
F0.0
aF0.0
aF0.0
aF0.0
aF0.0
aF0.0
aF0.0
aF0.0
aF0.0
aF0.0
aF0.0
aF0.0
aF0.0
aF0.0
aF0.0
aF0.0
aF0.0
aF0.0
aF0.0
asS'jovial'
p911
(lp912
F0.10002586
aF0.17874727
aF0.0
aF0.0
aF0.0
aF0.0
aF0.06275987
aF0.0
aF0.0
aF0.0
aF0.0
aF0.0
aF0.0516192
aF0.044375487
aF0.0
aF0.0
aF0.0
aF0.0
aF0.0
asS'aura'
p913
(lp914
F0.004868683
aF0.21044457
aF0.06964522
aF0.004113129
aF0.10802352
aF0.040329818
aF0.005621989
aF0.0
aF0.06547989
aF0.0
aF0.0
aF0.0
aF0.055242334
aF0.015356833
aF0.17937568
aF0.03605874
aF0.0
aF0.0
aF0.035752147
asS'highlights'
p915
(lp916
F0.019118002
aF0.017930835
aF0.00219097
aF0.0
aF0.025557654
aF0.062053002
aF0.015019174
aF0.03912549
aF0.0
aF0.0
aF0.023502707
aF0.018699875
aF0.06181089
aF0.23094925
aF0.02136394
aF0.0
aF0.13175084
aF0.0
aF0.028357778
asS'corrupt'
p917
(lp918
F0.0
aF0.0
aF0.00344158
aF0.0
aF0.006839298
aF0.0
aF0.0
aF0.0
aF0.0
aF0.0
aF0.0
aF0.0
aF0.0
aF0.0
aF0.0
aF0.0
aF0.0
aF0.0
aF0.016647682
asS'approve'
p919
(lp920
F0.085756786
aF0.0
aF0.5513505
aF0.843508
aF0.0
aF0.0
aF0.0
aF0.0
aF0.0
aF0.0
aF0.0
aF0.0
aF0.0
aF0.0
aF0.0
aF0.0
aF0.052058876
aF0.0
aF0.030063966
asS'glorious'
p921
(lp922
F0.305048
aF0.087951936
aF0.10788795
aF0.04856086
aF0.0
aF0.0
aF0.03925454
aF0.0
aF0.0
aF0.0
aF0.0
aF0.0
aF0.038573727
aF0.029443886
aF0.0
aF0.0
aF0.0332884
aF0.0
aF0.13466948
asS'sulky'
p923
(lp924
F0.0
aF0.0
aF0.0
aF0.0
aF0.0
aF0.0
aF0.014588974
aF0.020254215
aF0.0
aF0.0
aF0.0
aF0.0
aF0.0
aF0.0
aF0.0
aF0.002467096
aF0.076390944
aF0.0
aF0.0
asS'sweet'
p925
(lp926
F0.08944291
aF0.03398178
aF0.024043428
aF0.021587914
aF0.017149294
aF0.0
aF0.031144133
aF0.086009234
aF0.048328828
aF0.007231448
aF0.0
aF0.0
aF0.098032765
aF0.002070537
aF0.08479463
aF0.004798588
aF0.016861364
aF0.0
aF0.016892126
asS'SageLinQ'
p927
(lp928
F0.0
aF0.015004857
aF0.041878387
aF0.02219311
aF0.0
aF0.0
aF0.025838586
aF0.026720922
aF0.0
aF0.02059111
aF0.0
aF0.0
aF0.0
aF0.030447712
aF0.0
aF0.018611664
aF0.0041868063
aF0.0
aF0.0
asS'LetMariaPlay'
p929
(lp930
F0.06977784
aF0.014020506
aF0.019989654
aF0.059169866
aF0.09233906
aF0.027483149
aF0.012973716
aF0.02213464
aF0.009014432
aF0.014286785
aF0.22766356
aF0.02357387
aF0.009557275
aF0.03912053
aF0.0043019843
aF0.031174812
aF0.025426943
aF0.027987571
aF0.17385438
asS'whatever'
p931
(lp932
I0
aI0
aI0
aI0
aI0
aI0
aI0
aI0
aI0
aI0
aI0
aI0
aI0
aI0
aI0
aI0
aI0
aI0
aI0
asS'drugs.'
p933
(lp934
F0.0
aF0.040288292
aF0.01110766
aF0.024746688
aF0.06591924
aF0.07099491
aF0.021884361
aF0.0027843046
aF0.018180862
aF0.0
aF0.028593857
aF0.0
aF0.022893181
aF0.006193175
aF0.0
aF0.07790443
aF0.0
aF0.0
aF0.0
asS'satisfaction'
p935
(lp936
F0.42508054
aF0.19853832
aF0.29720962
aF0.22434561
aF0.0
aF0.0
aF0.3195592
aF0.21993539
aF0.0
aF0.0
aF0.0
aF0.0
aF0.22190322
aF0.15264222
aF0.0
aF0.0
aF0.14121535
aF0.0
aF0.11684589
asS'inquisitive'
p937
(lp938
F0.0
aF0.070123106
aF0.0
aF0.0
aF0.0
aF0.042323455
aF0.10936195
aF0.05036318
aF0.0
aF0.0
aF0.0
aF0.0
aF0.0
aF0.13197209
aF0.0
aF0.0
aF0.04253545
aF0.0
aF0.033897996
asS'news'
p939
(lp940
F0.1244207
aF0.0853315
aF0.0
aF0.03282216
aF0.08485143
aF0.059890576
aF0.034307603
aF0.1255328
aF0.0
aF0.0
aF0.0
aF0.05380723
aF0.056660205
aF0.104143485
aF0.1075093
aF0.04961014
aF0.0
aF0.12782739
aF0.013819298
asS'doping'
p941
(lp942
F0.0
aF0.0
aF0.0
aF0.0
aF0.004387
aF0.002097
aF0.0
aF0.0
aF0.004899
aF0.004569
aF0.002358
aF0.000129
aF0.0
aF0.0
aF0.001784
aF0.09431
aF0.0
aF0.0
aF0.0
asS'Sorry'
p943
(lp944
F0.0
aF0.0
aF0.04680897
aF0.018755537
aF0.10834823
aF0.04974789
aF0.11621582
aF0.14044768
aF0.0
aF0.03207106
aF0.0
aF0.037945
aF0.0
aF0.06824795
aF0.09924358
aF0.065810464
aF0.046148617
aF0.14023699
aF0.17074555
asS'mortification'
p945
(lp946
F0.0
aF0.0
aF0.0
aF0.0
aF0.047996946
aF0.27030593
aF0.0
aF0.0
aF0.33276868
aF0.28133473
aF0.11839322
aF0.15350834
aF0.0
aF0.0
aF0.34639844
aF0.15371025
aF0.0
aF0.3396121
aF0.0
asS'100'
p947
(lp948
I0
aI0
aI0
aI0
aI0
aI0
aI0
aI0
aI0
aI0
aI0
aI0
aI0
aI0
aI0
aI0
aI0
aI0
aI0
asS'hysterically'
p949
(lp950
F0.0
aF0.0
aF0.0
aF0.0
aF0.60448766
aF0.26833084
aF0.0
aF0.0
aF0.3413092
aF0.211726
aF0.392058
aF0.22844158
aF0.0
aF0.0
aF0.1817374
aF0.0
aF0.0
aF0.16173966
aF0.0
asS'fright'
p951
(lp952
F0.0
aF0.0
aF0.0
aF0.0
aF0.7666068
aF0.75805664
aF0.0
aF0.0
aF0.37169388
aF0.37358198
aF0.31972116
aF0.16326174
aF0.0
aF0.0
aF0.30893075
aF0.16346675
aF0.0
aF0.29178518
aF0.0
asS'imp'
p953
(lp954
F0.0431587
aF0.0
aF0.0
aF0.0
aF0.03123326
aF0.0
aF0.018141463
aF0.043294307
aF0.0
aF0.0
aF0.02577181
aF0.0
aF0.0
aF0.031833317
aF0.0
aF0.0
aF0.064190604
aF0.0
aF0.0
asS'due'
p955
(lp956
F0.0
aF0.0
aF0.056215826
aF0.011132258
aF0.1348737
aF0.0
aF0.019113898
aF0.0
aF0.0
aF0.0
aF0.0
aF0.0
aF0.09058581
aF0.07467424
aF0.0
aF0.0
aF0.16395867
aF0.0
aF0.039078422
asS'.'
p957
(lp958
I0
aI0
aI0
aI0
aI0
aI0
aI0
aI0
aI0
aI0
aI0
aI0
aI0
aI0
aI0
aI0
aI0
aI0
aI0
asS'confident'
p959
(lp960
F0.104808
aF0.31460723
aF0.06368319
aF0.092815906
aF0.0
aF0.0
aF0.0
aF0.0
aF0.0
aF0.0
aF0.0
aF0.0
aF0.23650683
aF0.06699658
aF0.0
aF0.0
aF0.03546681
aF0.0
aF0.0
asS'California'
p961
(lp962
F0.0
aF0.0
aF0.0
aF0.0
aF0.0
aF0.0
aF0.0
aF0.0
aF0.0
aF0.0
aF0.0
aF0.0
aF0.0
aF0.0
aF0.0
aF0.0
aF0.0
aF0.0
aF0.0
asS'peaceful'
p963
(lp964
F0.04585954
aF0.077047326
aF0.0
aF0.59621923
aF0.0
aF0.0
aF0.0
aF0.0
aF0.0
aF0.0
aF0.0
aF0.0
aF0.0
aF0.0
aF0.0
aF0.0
aF0.0
aF0.0
aF0.04649924
asS'upbeat'
p965
(lp966
F0.03975935
aF0.07243642
aF0.038389537
aF0.03367122
aF0.0
aF0.052228417
aF0.13888319
aF0.0
aF0.081820324
aF0.0
aF0.0
aF0.0
aF0.02814777
aF0.0
aF0.12425031
aF0.0
aF0.10593811
aF0.11094288
aF0.07348349
asS'capably'
p967
(lp968
F0.02139955
aF0.051975545
aF0.354619003
aF0.0
aF0.0
aF0.0
aF0.00462564
aF0.0
aF0.0
aF0.0
aF0.003138796
aF0.01754451
aF0.11518537
aF0.156159
aF0.044467706
aF0.10123293
aF0.004149557
aF0.0
aF0.0
asS'Bud'
p969
(lp970
F0.09933856
aF0.0
aF0.0
aF0.0
aF0.0
aF0.00011395443
aF0.02918606
aF0.04389722
aF0.0
aF0.0
aF0.0
aF0.0
aF0.023711124
aF0.048352644
aF0.0
aF0.018566133
aF0.03686781
aF0.037116323
aF0.028582567
asS'Care'
p971
(lp972
F0.038050175
aF0.0
aF0.08109615
aF0.06450512
aF0.019121982
aF0.036118466
aF0.017296366
aF0.02675844
aF0.039864555
aF0.050652336
aF0.0
aF0.0
aF0.008549594
aF0.08625262
aF0.016105754
aF0.050019782
aF0.098070115
aF0.09954625
aF0.1847303
asS'fights'
p973
(lp974
F0.000763187
aF0.009387925
aF0.017216688
aF0.032418553
aF0.09776961
aF0.0
aF0.0
aF0.014346354
aF0.0
aF0.0
aF0.05326632
aF0.012987561
aF0.0
aF0.002102645
aF0.004825631
aF0.026217805
aF0.0
aF0.0
aF0.04564271
asS'perplexed'
p975
(lp976
F0.0
aF0.0
aF0.0
aF0.0
aF0.096163675
aF0.20544963
aF0.0
aF0.0
aF0.032271363
aF0.056537375
aF0.0
aF0.0
aF0.0
aF0.0
aF0.0
aF0.224882434
aF0.0
aF0.0
aF0.0
asS'champion'
p977
(lp978
F0.000470813
aF0.053661503
aF0.076519
aF0.0015378601
aF0.015560431
aF0.0
aF0.004852466
aF0.028148452
aF0.0
aF0.0
aF0.0
aF0.0
aF0.0008287119
aF0.04519277
aF0.0
aF0.0
aF0.0077358065
aF0.0
aF0.07287854
asS'drugs'
p979
(lp980
F0.0
aF0.040288292
aF0.01110766
aF0.024746688
aF0.06591924
aF0.07099491
aF0.021884361
aF0.0027843046
aF0.018180862
aF0.0
aF0.028593857
aF0.0
aF0.022893181
aF0.006193175
aF0.0
aF0.07790443
aF0.0
aF0.0
aF0.0
asS'CA'
p981
(lp982
F0.0
aF0.0
aF0.0
aF0.0
aF0.0
aF0.0
aF0.0
aF0.0
aF0.0
aF0.0
aF0.0
aF0.0
aF0.0
aF0.0
aF0.0
aF0.0
aF0.0
aF0.0
aF0.0
asS"'could"
p983
(lp984
I0
aI0
aI0
aI0
aI0
aI0
aI0
aI0
aI0
aI0
aI0
aI0
aI0
aI0
aI0
aI0
aI0
aI0
aI0
asS'tense'
p985
(lp986
F0.0
aF0.0
aF0.0
aF0.0
aF0.0707552
aF0.1549696
aF0.0
aF0.0
aF0.0
aF0.0
aF0.04885865
aF0.098213464
aF0.0
aF0.0
aF0.0
aF0.0
aF0.0
aF0.0
aF0.0
asS'hateful'
p987
(lp988
F0.029062524
aF0.0
aF0.019524043
aF0.05685484
aF0.11178975
aF0.018827185
aF0.012391003
aF0.0
aF0.09353198
aF0.053170096
aF0.053148843
aF0.07190206
aF0.0
aF0.0
aF0.08284491
aF0.004830285
aF0.0
aF0.065332666
aF0.045952998
asS'World'
p989
(lp990
F0.05304158
aF0.0
aF0.0
aF0.08815028
aF0.02350442
aF0.03772069
aF0.0
aF0.0
aF0.0
aF0.0
aF0.0021902295
aF0.0
aF0.0
aF0.39058572
aF0.0
aF0.063054964
aF0.00028916713
aF0.008427421
aF0.15677787
asS'Starting'
p991
(lp992
F0.0066675637
aF0.047942936
aF0.00994213
aF0.051183525
aF0.010643292
aF0.06589104
aF0.0
aF0.010722851
aF0.06960821
aF0.014102876
aF0.08293327
aF0.045088448
aF0.07742267
aF0.10505715
aF0.0
aF0.04055627
aF0.03822623
aF0.0010783024
aF0.02619004
asS'honest'
p993
(lp994
F0.09929533
aF0.06614954
aF0.06409504
aF0.025181258
aF0.0
aF0.0
aF0.02998014
aF0.0
aF0.0
aF0.0
aF0.0
aF0.0
aF0.0
aF0.042084087
aF0.0
aF0.0
aF0.15252207
aF0.0
aF0.072687685
asS'Podcast'
p995
(lp996
F0.0
aF0.0
aF0.0
aF0.0
aF0.0
aF0.0
aF0.0
aF0.0
aF0.0
aF0.0
aF0.0
aF0.0
aF0.0
aF0.0
aF0.0
aF0.0
aF0.0
aF0.0
aF0.0
asS'uncertain'
p997
(lp998
F0.0
aF0.07122369
aF0.0
aF0.035224788
aF0.0
aF0.09239061
aF0.06931414
aF0.0
aF0.0
aF0.013322052
aF0.017749554
aF0.0
aF0.06450495
aF0.014515141
aF0.0
aF0.044603236
aF0.0
aF0.0
aF0.023531249
asS'informatio'
p999
(lp1000
F0.0
aF0.0
aF0.0
aF0.0
aF0.0
aF0.0
aF0.0
aF0.0
aF0.0
aF0.0
aF0.0
aF0.0
aF0.0
aF0.0
aF0.0
aF0.0
aF0.0
aF0.0
aF0.0
asS'sardonic'
p1001
(lp1002
F0.04133574
aF0.12909925
aF0.01
aF0.05161633
aF0.0
aF0.027946321
aF0.0
aF0.0
aF0.0
aF0.030438067
aF0.0481295
aF0.02314093
aF0.0
aF0.0
aF0.1782194
aF0.09134249
aF0.0
aF0.0
aF0.0
asS'fearful'
p1003
(lp1004
F0.0
aF0.0
aF0.0
aF0.0
aF0.77405834
aF0.23038335
aF0.0
aF0.0
aF0.07013052
aF0.0
aF0.1461524
aF0.17125261
aF0.0
aF0.0
aF0.0
aF0.015111844
aF0.0
aF0.0
aF0.0
asS'reliable'
p1005
(lp1006
F0.052677814
aF0.016099777
aF0.0
aF0.021069987
aF0.050207168
aF0.041265767
aF0.0
aF0.043547295
aF0.049870852
aF0.044420574
aF0.079540566
aF0.019132752
aF0.002812024
aF0.03703528
aF0.0
aF0.0
aF0.250036
aF0.0
aF0.0
asS'budget'
p1007
(lp1008
F0.015901098
aF0.0938814
aF0.0
aF0.0
aF0.0065401644
aF0.023050956
aF0.0
aF0.0
aF0.01611581
aF0.0
aF0.020672617
aF0.0
aF0.0
aF0.0024288753
aF0.041310593
aF0.12347194
aF0.0
aF0.05577399
aF0.022437476
asS'brilliant'
p1009
(lp1010
F0.061399512
aF0.037470385
aF0.23540325
aF0.0
aF0.0
aF0.0
aF0.047808003
aF0.09044459
aF0.0
aF0.0
aF0.0
aF0.0
aF0.0
aF0.053372834
aF0.0
aF0.0
aF0.0
aF0.0
aF0.1377241
asS'abou'
p1011
(lp1012
I0
aI0
aI0
aI0
aI0
aI0
aI0
aI0
aI0
aI0
aI0
aI0
aI0
aI0
aI0
aI0
aI0
aI0
aI0
asS'reliably'
p1013
(lp1014
F0.052677814
aF0.016099777
aF0.0
aF0.021069987
aF0.050207168
aF0.041265767
aF0.0
aF0.043547295
aF0.049870852
aF0.044420574
aF0.079540566
aF0.019132752
aF0.002812024
aF0.03703528
aF0.0
aF0.0
aF0.250036
aF0.0
aF0.0
asS'scum'
p1015
(lp1016
F0.003260293
aF0.0
aF0.0
aF0.013727749
aF0.015932394
aF0.032500364
aF0.014359848
aF0.097689286
aF0.024902353
aF0.015369752
aF0.06962908
aF0.031613402
aF0.027538843
aF0.013186215
aF0.049319416
aF0.0
aF0.0
aF0.040072776
aF0.0
asS'Follow'
p1017
(lp1018
F0.004307614
aF0.0014232848
aF0.042519253
aF0.54868305
aF0.022020843
aF0.029491356
aF0.057440903
aF0.02712018
aF0.029590063
aF0.024634417
aF0.05936621
aF0.015672252
aF0.05047354
aF0.016442012
aF0.0
aF0.024531353
aF0.026207848
aF0.0
aF0.017475331
asS'venomous'
p1019
(lp1020
F0.0
aF0.0
aF0.0
aF0.0
aF0.024978232
aF0.0
aF0.0
aF0.0
aF0.197586
aF0.075049475
aF0.22376615
aF0.1652623
aF0.0
aF0.0
aF0.0
aF0.06066861
aF0.0
aF0.036381725
aF0.0
asS'animated'
p1021
(lp1022
F0.0
aF0.0
aF0.013397896
aF0.0
aF0.010418145
aF0.041793443
aF0.021939347
aF0.0
aF0.0
aF0.021507993
aF0.004835598
aF0.029447207
aF0.0
aF0.0
aF0.0
aF0.0396792
aF0.003422624
aF0.015112043
aF0.059196793
asS'release'
p1023
(lp1024
F0.066780195
aF0.06876277
aF0.026752375
aF0.10820624
aF0.06381005
aF0.044580545
aF0.0016498573
aF0.09747298
aF0.0
aF0.0
aF0.022941744
aF0.06733786
aF0.09368226
aF0.0
aF0.0
aF0.0
aF0.0
aF0.009647548
aF0.055025842
asS'pessimistic'
p1025
(lp1026
F0.0
aF0.0
aF0.0
aF0.0
aF0.12071912
aF0.21880794
aF0.0
aF0.0
aF0.13710237
aF0.12657477
aF0.06954687
aF0.08787415
aF0.0
aF0.0
aF0.14631146
aF0.09308122
aF0.0
aF0.06890711
aF0.0
asS'Troops'
p1027
(lp1028
F0.0
aF0.04650612
aF0.0
aF0.023915606
aF0.033114
aF0.0
aF0.0
aF0.0059947283
aF0.0
aF0.0
aF0.017464016
aF0.0154536115
aF0.03699492
aF0.008899352
aF0.02045765
aF0.041863237
aF0.0045656357
aF0.0
aF0.0
asS'ridiculed'
p1029
(lp1030
F0.056755666
aF0.0
aF0.0
aF0.0
aF0.13323218
aF0.19021209
aF0.0
aF0.0
aF0.32548425
aF0.36626402
aF0.099430464
aF0.197309
aF0.0
aF0.0
aF0.13318487
aF0.338486
aF0.0
aF0.08408646
aF0.0
asS'Reaction'
p1031
(lp1032
F0.051617008
aF0.024023473
aF0.103845835
aF0.142869
aF0.10308579
aF0.085153624
aF0.19649042
aF0.17615333
aF0.072395265
aF0.16282184
aF0.12975444
aF0.20116763
aF0.072286785
aF0.00671486
aF0.056374136
aF0.1027957
aF0.10623061
aF0.0
aF0.0
asS'sincere'
p1033
(lp1034
F0.007028788
aF0.0
aF0.08044292
aF0.002443377
aF0.008225342
aF0.0082584
aF0.03238851
aF0.002722875
aF0.06405849
aF0.09273241
aF0.0
aF0.01951358
aF0.0
aF0.013387974
aF0.056467798
aF0.060649563
aF0.027988447
aF0.06473192
aF0.108831674
asS'Tennis'
p1035
(lp1036
F0.0
aF0.0073029855
aF0.0
aF0.008507112
aF0.01832425
aF0.0
aF0.008330751
aF0.0
aF0.0020955359
aF0.01777779
aF0.064549364
aF0.02467961
aF0.008101636
aF0.063124545
aF0.015034008
aF0.0
aF0.0
aF0.0
aF0.067166954
asS'shame'
p1037
(lp1038
F0.21430708
aF0.018356482
aF0.13804185
aF0.032270767
aF0.20004977
aF0.20072746
aF0.22494486
aF0.085118964
aF0.17913993
aF0.37334883
aF0.26909983
aF0.33229786
aF0.08330728
aF0.02327924
aF0.5049835
aF0.24620861
aF0.037617024
aF0.40824386
aF0.047794387
asS'good'
p1039
(lp1040
F0.045336355
aF0.09105745
aF0.03045988
aF0.010064296
aF0.0
aF0.030143678
aF0.0
aF0.03619353
aF0.07102028
aF0.096366175
aF0.003078984
aF0.031148952
aF0.01986118
aF0.08239651
aF0.020801665
aF0.10502921
aF0.031508155
aF0.029217357
aF0.20364995
asS'optimistic'
p1041
(lp1042
F0.13554525
aF0.9052933
aF0.10958929
aF0.041503947
aF0.10012407
aF0.13927022
aF0.07063401
aF0.13734666
aF0.084422685
aF0.043462474
aF0.055645112
aF0.08272816
aF0.12069136
aF0.07779615
aF0.105462015
aF0.02119016
aF0.064876854
aF0.058441542
aF0.067087024
asS'return'
p1043
(lp1044
F0.08339145
aF0.047947105
aF0.0
aF0.17336887
aF0.030147122
aF0.119921096
aF0.018100237
aF0.060994573
aF0.0029990305
aF0.012003688
aF0.04178607
aF0.030443087
aF0.025193306
aF0.11951629
aF0.003629353
aF0.0
aF0.105702356
aF0.019272963
aF0.071678646
asS'obnoxious'
p1045
(lp1046
F0.0
aF0.0
aF0.0
aF0.041207504
aF0.015512769
aF0.08700665
aF0.0
aF0.0
aF0.03764877
aF0.108354695
aF0.041311778
aF0.031194331
aF0.0
aF0.030134441
aF0.0
aF0.15139957
aF0.0
aF0.0
aF7.63e-05
asS'funny'
p1047
(lp1048
F0.017230406
aF0.028171826
aF0.0
aF0.055796612
aF0.0
aF0.0
aF0.0
aF0.034422338
aF0.0
aF0.0
aF0.0
aF0.0
aF0.0
aF0.082287684
aF0.028840037
aF0.0
aF0.026374778
aF0.0
aF0.07635484
asS'resentful'
p1049
(lp1050
F0.0
aF0.0
aF0.0
aF0.0
aF0.16920628
aF0.065779686
aF0.0
aF0.0
aF0.14488256
aF0.02852596
aF0.0737104
aF0.1857104
aF0.0
aF0.0
aF0.0
aF0.17539753
aF0.0
aF0.0
aF0.0
asS'harsh'
p1051
(lp1052
F0.0
aF0.0
aF0.0
aF0.0
aF0.012864699
aF0.043267455
aF0.0
aF0.0
aF0.0
aF0.0
aF0.0
aF0.090109795
aF0.0
aF0.0
aF0.0
aF0.095732726
aF0.0
aF0.0
aF0.0
asS'media'
p1053
(lp1054
F0.0
aF0.0
aF0.0
aF0.0
aF0.0
aF0.0
aF0.0
aF0.0
aF0.0
aF0.0
aF0.0
aF0.0
aF0.0
aF0.0
aF0.0
aF0.0
aF0.0
aF0.0
aF0.0
asS'cross'
p1055
(lp1056
F0.0
aF0.0
aF0.012972569
aF0.058375288
aF0.022950405
aF0.03600845
aF0.0
aF0.019035814
aF0.0
aF0.002884311
aF0.03192395
aF0.001379954
aF0.05096231
aF0.0340251
aF0.0
aF0.03972313
aF0.024396915
aF0.015451552
aF0.022900237
asS'defiant'
p1057
(lp1058
F0.013346737
aF0.18691996
aF0.048944205
aF0.107248396
aF0.056124303
aF0.03496417
aF0.059001483
aF0.03331275
aF0.06895468
aF0.09938013
aF0.15159887
aF0.16239485
aF0.06254841
aF0.0
aF0.06232261
aF0.18291405
aF0.0
aF0.051109627
aF0.0
asS'exuberance'
p1059
(lp1060
F0.7210242
aF0.249628
aF0.0
aF0.060604792
aF0.0
aF0.0
aF0.0
aF0.0
aF0.0
aF0.0
aF0.0
aF0.0
aF0.080492
aF0.061409105
aF0.0
aF0.0
aF0.13086948
aF0.0
aF0.043832764
asS'Williams'
p1061
(lp1062
F0.0
aF0.0
aF0.0
aF0.0
aF0.0
aF0.0
aF0.0
aF0.0
aF0.0
aF0.0
aF0.0
aF0.0
aF0.0
aF0.0
aF0.0
aF0.0
aF0.0
aF0.0
aF0.0
asS'agitated'
p1063
(lp1064
F0.0
aF0.0
aF0.0
aF0.0
aF0.12711732
aF0.022640653
aF0.0
aF0.0
aF0.0
aF0.0
aF0.1748458
aF0.16876274
aF0.0
aF0.0
aF0.0
aF0.052504763
aF0.0
aF0.0
aF0.0
asS'Courageous'
p1065
(lp1066
F0.04016638
aF0.13723324
aF0.1790941
aF0.0
aF0.034304228
aF0.0
aF0.019911747
aF0.0
aF0.0
aF0.0
aF0.0036317755
aF0.03266299
aF0.0
aF0.012193121
aF0.012946002
aF0.09520266
aF0.027662361
aF0.042555302
aF0.07921762
asS'week'
p1067
(lp1068
F0.038528625
aF0.0006804621
aF0.0058327783
aF0.0
aF0.007928087
aF0.0
aF0.0489376
aF0.021003135
aF0.01833483
aF0.015567032
aF0.025284698
aF0.02993893
aF0.0
aF0.01522653
aF0.012761915
aF0.009004414
aF0.03541803
aF0.050002955
aF0.0068243253
asS"sport's"
p1069
(lp1070
F0.026302814
aF0.010402059
aF0.040042207
aF0.0
aF0.05883144
aF0.007845538
aF0.030329086
aF0.0
aF0.008245375
aF0.012267438
aF0.027913397
aF0.0
aF0.03236581
aF0.071355365
aF0.003994487
aF0.03597539
aF0.0
aF0.0
aF0.13370731
asS'resentfully'
p1071
(lp1072
F0.0
aF0.0
aF0.0
aF0.0
aF0.16920628
aF0.065779686
aF0.0
aF0.0
aF0.54488256
aF0.45867737
aF0.98011106
aF0.1857104
aF0.0
aF0.0
aF0.011915307
aF0.17539753
aF0.0
aF0.0
aF0.04864677
asS'applaud'
p1073
(lp1074
F0.15283848
aF0.04964626
aF0.2874576
aF0.038369775
aF0.0
aF0.007312531
aF0.14793955
aF0.1961287
aF0.0
aF0.018824529
aF0.014763597
aF0.12041248
aF0.06764923
aF0.006465235
aF0.0
aF0.18767813
aF0.13508534
aF0.0
aF0.0760224
asS'Clear'
p1075
(lp1076
F0.0
aF0.017944634
aF0.03129896
aF0.09265413
aF0.0
aF0.078753494
aF0.029386697
aF0.04287862
aF0.0
aF0.0
aF0.037080307
aF0.0
aF0.047296837
aF0.014406421
aF0.0
aF0.004408764
aF0.012544588
aF0.0
aF0.010266444
asS'reporting'
p1077
(lp1078
F0.0
aF0.0
aF0.0
aF0.0
aF0.0
aF0.0
aF0.0
aF0.0
aF0.0
aF0.0
aF0.0
aF0.0
aF0.0
aF0.0
aF0.0
aF0.0
aF0.0
aF0.0
aF0.0
asS'yesterday'
p1079
(lp1080
F0.0
aF0.0
aF0.0
aF0.0
aF0.0
aF0.0
aF0.0
aF0.0
aF0.0
aF0.0
aF0.0
aF0.0
aF0.0
aF0.0
aF0.0
aF0.0
aF0.0
aF0.0
aF0.0
asS'fucker'
p1081
(lp1082
F0.0
aF0.0
aF0.0
aF0.0
aF0.0
aF0.0
aF0.0
aF0.0
aF0.0
aF0.0
aF0.0
aF0.0
aF0.0
aF0.0
aF0.0
aF0.0
aF0.0
aF0.0
aF0.0
asS'Angeles'
p1083
(lp1084
I0
aI0
aI0
aI0
aI0
aI0
aI0
aI0
aI0
aI0
aI0
aI0
aI0
aI0
aI0
aI0
aI0
aI0
aI0
asS'discouraged'
p1085
(lp1086
F0.04018579
aF0.079174705
aF0.0
aF0.000111
aF0.005421316
aF0.0
aF0.0
aF0.0
aF0.008954803
aF0.0
aF0.0
aF0.0
aF0.0
aF0.0
aF0.0
aF0.0
aF0.0
aF0.016612165
aF0.0
asS'jealous'
p1087
(lp1088
F0.0
aF0.0
aF0.0
aF0.0
aF0.13968334
aF0.0
aF0.0
aF0.0
aF0.17074499
aF0.0
aF0.27353448
aF0.18889676
aF0.0
aF0.0
aF0.0
aF0.04984066
aF0.0
aF0.09784718
aF0.0
asS'positives'
p1089
(lp1090
F0.08660362
aF0.11554812
aF0.04605792
aF0.019147418
aF0.08794189
aF0.1156581
aF0.09472436
aF0.13142943
aF0.0
aF0.0
aF0.0
aF0.076483026
aF0.05040139
aF0.057325747
aF0.077626586
aF0.020927101
aF0.033879876
aF0.022533663
aF0.025401898
asS'terribly'
p1091
(lp1092
F0.07287147
aF0.012266142
aF0.0
aF0.0
aF0.14800893
aF0.053392917
aF0.044061985
aF0.07500322
aF0.0
aF0.010771592
aF0.20579247
aF0.1017002
aF0.0
aF0.026440002
aF0.25925787
aF0.025812954
aF0.008029659
aF0.42419778
aF0.049530398
asS'timid'
p1093
(lp1094
F0.0
aF0.0
aF0.0
aF0.0
aF0.13595496
aF0.078272834
aF0.0
aF0.0
aF0.021732591
aF0.0203836
aF0.020274347
aF0.0
aF0.0
aF0.0
aF0.0
aF0.0
aF0.0
aF0.0
aF0.0
asS'destruction'
p1095
(lp1096
F0.014171712
aF0.021487009
aF0.008588944
aF0.09472401
aF0.06547935
aF0.004729989
aF0.10047713
aF0.049408413
aF0.016326994
aF0.02537158
aF0.056249972
aF0.074784495
aF0.0
aF0.019280322
aF0.022337785
aF0.0
aF0.0
aF0.10719715
aF0.0
asS'Dopage'
p1097
(lp1098
F0.0
aF0.0
aF0.0
aF0.0
aF0.0
aF0.0
aF0.0
aF0.0
aF0.0
aF0.0
aF0.0
aF0.0
aF0.0
aF0.0
aF0.0
aF0.0
aF0.0
aF0.0
aF0.0
asS'vilified'
p1099
(lp1100
F0.0
aF0.0
aF0.0
aF0.0
aF0.06665971
aF0.07126183
aF0.0
aF0.0
aF0.20437394
aF0.077469625
aF0.10651031
aF0.08055869
aF0.0
aF0.0
aF0.0
aF0.19007185
aF0.0
aF0.026098046
aF0.0
asS'well'
p1101
(lp1102
F0.05839176
aF0.07772024
aF0.00092373486
aF0.023046618
aF0.048766077
aF0.0
aF0.037036765
aF0.050692465
aF0.0047730193
aF0.048368838
aF0.0
aF0.0
aF0.06234895
aF0.049345687
aF0.053474784
aF0.01961506
aF0.010697782
aF0.008666427
aF0.0
asS'disoriented'
p1103
(lp1104
F0.0
aF0.0
aF0.0
aF0.0
aF0.10566488
aF0.08030912
aF0.0
aF0.0
aF0.039925802
aF0.0
aF0.053007763
aF0.0
aF0.0
aF0.0
aF0.0
aF0.0
aF0.0
aF0.0
aF0.0
asS'person'
p1105
(lp1106
F0.0
aF0.051536344
aF0.0
aF0.044996955
aF0.031826187
aF0.0
aF0.0
aF0.0
aF0.0
aF0.0
aF0.014431047
aF0.0
aF0.0045756833
aF0.013364577
aF0.0
aF0.0
aF0.0
aF0.0
aF0.00095842517
asS'de'
p1107
(lp1108
I0
aI0
aI0
aI0
aI0
aI0
aI0
aI0
aI0
aI0
aI0
aI0
aI0
aI0
aI0
aI0
aI0
aI0
aI0
asS'relief'
p1109
(lp1110
F0.26202157
aF0.058056943
aF0.06416856
aF0.10670435
aF0.09320968
aF0.121393465
aF0.21164335
aF0.08459723
aF0.101007186
aF0.18456483
aF0.09386001
aF0.16964343
aF0.0
aF0.0
aF0.17543964
aF0.0831643
aF0.0
aF0.16426218
aF0.046093218
asS'incapable'
p1111
(lp1112
F0.0
aF0.0
aF0.0
aF0.0
aF0.0
aF0.07792903
aF0.0
aF0.0
aF0.09595081
aF0.078871414
aF0.076009825
aF0.0
aF0.0
aF0.0
aF0.05038763
aF0.5569065
aF0.0
aF0.056283873
aF0.0
asS'audio'
p1113
(lp1114
F0.0
aF0.0
aF0.0
aF0.0
aF0.0
aF0.0
aF0.0
aF0.0
aF0.0
aF0.0
aF0.0
aF0.0
aF0.0
aF0.0
aF0.0
aF0.0
aF0.0
aF0.0
aF0.0
asS'United'
p1115
(lp1116
F0.06787854
aF0.0
aF0.0763836
aF0.037585918
aF0.0
aF0.060514852
aF0.0012860758
aF0.0
aF0.0
aF0.0
aF0.0
aF0.0
aF0.0
aF0.12254749
aF0.0074053463
aF0.020241426
aF0.12272876
aF0.0
aF0.12859102
asS'vindictive'
p1117
(lp1118
F0.0
aF0.033681717
aF0.02590447
aF0.0
aF0.09313713
aF0.03989197
aF0.0
aF0.0
aF0.14728315
aF0.0
aF0.11265481
aF0.055725824
aF0.0
aF0.06078744
aF0.0
aF0.09250257
aF0.0
aF0.0
aF0.021711525
asS'against'
p1119
(lp1120
I0
aI0
aI0
aI0
aI0
aI0
aI0
aI0
aI0
aI0
aI0
aI0
aI0
aI0
aI0
aI0
aI0
aI0
aI0
asS'violent'
p1121
(lp1122
F0.013901135
aF0.05292676
aF0.0
aF0.010149591
aF0.09769923
aF0.066612855
aF0.011129792
aF0.019727476
aF0.0
aF0.0
aF0.28267246
aF0.15195505
aF0.0
aF0.042412195
aF0.020462712
aF0.0
aF0.0
aF0.04329363
aF0.041280266
asS'kill'
p1123
(lp1124
F0.014741666
aF0.03431359
aF0.029846454
aF0.029116036
aF0.13255325
aF0.011604414
aF0.037134606
aF0.000433
aF0.012936501
aF0.0
aF0.06843797
aF0.007856368
aF0.011609484
aF0.010055938
aF0.01795531
aF0.009541924
aF0.0
aF0.030683944
aF0.05812703
asS'human'
p1125
(lp1126
F0.0
aF0.031762015
aF0.0
aF0.10356937
aF0.03201421
aF0.0
aF0.0
aF0.0
aF0.0
aF0.0037754558
aF0.06494253
aF0.0
aF0.0
aF0.014196402
aF0.0
aF0.0
aF0.0
aF0.0
aF0.025974067
asS'using'
p1127
(lp1128
F0.0
aF0.030601583
aF0.015091242
aF0.01749622
aF0.015360572
aF0.0029780522
aF0.016482702
aF0.0
aF0.0
aF0.0
aF0.0
aF0.0032852541
aF0.0512797
aF0.0
aF0.05758106
aF0.009350121
aF0.03280978
aF0.010451372
aF0.0048132874
asS'openstack'
p1129
(lp1130
F0.0
aF0.0
aF0.0
aF0.0
aF0.0
aF0.0
aF0.0
aF0.0
aF0.0
aF0.0
aF0.0
aF0.0
aF0.0
aF0.0
aF0.0
aF0.0
aF0.0
aF0.0
aF0.0
asS'keen'
p1131
(lp1132
F0.019812264
aF0.03640486
aF0.07199017
aF0.0
aF0.019279571
aF0.050976846
aF0.027680207
aF0.0
aF0.07457945
aF0.06844847
aF0.001450413
aF0.04683106
aF0.06688486
aF0.17724611
aF0.035696406
aF0.044561002
aF0.08932651
aF0.0
aF0.0
asS'article'
p1133
(lp1134
F0.0
aF0.017809816
aF0.032251418
aF0.01930457
aF0.05565982
aF0.06410441
aF0.08402436
aF0.0337992
aF0.0
aF0.046178225
aF0.019846812
aF0.04166484
aF0.0
aF0.074634865
aF0.029374925
aF0.0
aF0.0
aF0.016896177
aF0.0
asS'impending'
p1135
(lp1136
F0.0
aF0.0
aF0.0
aF0.0
aF0.0
aF0.0
aF0.0
aF0.0
aF0.0
aF0.0
aF0.0
aF0.0
aF0.0
aF0.0
aF0.0
aF0.0
aF0.0
aF0.0
aF0.0
asS'test.'
p1137
(lp1138
F0.0
aF0.022639047
aF0.033050485
aF0.033966493
aF0.07847993
aF0.028511843
aF0.033516776
aF0.043882024
aF0.0
aF0.0
aF0.0006133906
aF0.0
aF0.0
aF0.0
aF0.0
aF0.0
aF0.0
aF0.0
aF0.02567718
asS'blow'
p1139
(lp1140
F0.032993868
aF0.013077176
aF0.011159193
aF0.0
aF0.000367
aF0.001337778
aF0.0
aF0.19855818
aF0.0
aF0.0
aF0.0
aF0.04765946
aF0.0
aF0.0
aF0.051878575
aF0.025816955
aF0.0
aF0.017917033
aF0.0
asS'generous'
p1141
(lp1142
F0.045915354
aF0.101582274
aF0.14984432
aF0.10635711
aF0.010792957
aF0.009500958
aF0.03765115
aF0.023775022
aF0.058252838
aF0.01769889
aF0.016823912
aF0.016866103
aF0.0
aF0.007592242
aF0.032879733
aF0.0
aF0.1068408
aF0.032631952
aF0.077775136
asS'podcast'
p1143
(lp1144
F0.0
aF0.0
aF0.0
aF0.0
aF0.0
aF0.0
aF0.0
aF0.0
aF0.0
aF0.0
aF0.0
aF0.0
aF0.0
aF0.0
aF0.0
aF0.0
aF0.0
aF0.0
aF0.0
asS'senseless'
p1145
(lp1146
F0.0
aF3.27e-05
aF0.0
aF0.0
aF0.0
aF0.0
aF0.10678667
aF0.094132885
aF0.0
aF0.019074371
aF0.16501996
aF0.022426797
aF0.0
aF0.05133141
aF0.13920076
aF0.015221734
aF0.0
aF0.20388976
aF0.030286787
asS'discuss'
p1147
(lp1148
F0.0
aF0.021678656
aF0.029704478
aF0.07112984
aF0.02531559
aF0.019139249
aF0.0036913091
aF0.0
aF0.05389655
aF0.00207221
aF0.04574555
aF0.03664565
aF0.045768213
aF0.16321687
aF0.014282626
aF0.013062845
aF0.014287687
aF0.014615162
aF0.00041121364
asS'eager'
p1149
(lp1150
F0.0
aF0.071730584
aF0.0
aF0.053856485
aF0.0
aF0.0
aF0.0
aF0.0
aF0.0
aF0.013763473
aF0.0
aF0.046719156
aF0.057555772
aF0.051720306
aF0.0
aF0.0
aF0.0
aF0.0
aF0.0
asS'add'
p1151
(lp1152
F0.018321922
aF0.065137185
aF0.027435258
aF0.04103117
aF0.024113456
aF0.0
aF0.009282383
aF0.014126107
aF0.0
aF0.0
aF0.0
aF0.0
aF0.03541078
aF0.0054322532
aF0.004591955
aF0.0
aF0.0
aF0.0
aF0.06493842
asS'innocent'
p1153
(lp1154
F0.0
aF0.05074588
aF0.025343152
aF0.027853535
aF0.0
aF0.0
aF0.039541706
aF0.018225372
aF0.0
aF0.0
aF0.0
aF0.0
aF0.02645327
aF0.11289959
aF0.0
aF0.0
aF0.030339139
aF0.0
aF0.1251455
asS"It's"
p1155
(lp1156
F0.0
aF0.0
aF0.0
aF0.0
aF0.0
aF0.0
aF0.0
aF0.0
aF0.0
aF0.0
aF0.0
aF0.0
aF0.0
aF0.0
aF0.0
aF0.0
aF0.0
aF0.0
aF0.0
asS'News'
p1157
(lp1158
F0.1244207
aF0.0853315
aF0.0
aF0.03282216
aF0.08485143
aF0.059890576
aF0.034307603
aF0.1255328
aF0.0
aF0.0
aF0.0
aF0.05380723
aF0.056660205
aF0.104143485
aF0.1075093
aF0.04961014
aF0.0
aF0.12782739
aF0.013819298
asS'mournful'
p1159
(lp1160
F0.0
aF0.0
aF0.0
aF0.0
aF0.05809523
aF0.027060216
aF0.0
aF0.0
aF0.026633374
aF0.03872139
aF0.0
aF0.0
aF0.0
aF0.0
aF0.33821583
aF0.01103255
aF0.0
aF0.22468065
aF0.0
asS'disrupt'
p1161
(lp1162
F0.016946124
aF0.002064611
aF0.005796078
aF0.0
aF0.06759963
aF0.036715526
aF0.002442421
aF0.065444075
aF0.006671741
aF0.0
aF0.007725272
aF0.058103908
aF0.049296092
aF0.005546444
aF0.028817033
aF0.033088215
aF0.0
aF0.037857533
aF0.029710038
asS'smart'
p1163
(lp1164
F0.0
aF0.042549413
aF0.0
aF0.022673842
aF0.08149149
aF0.011180843
aF0.0
aF0.0
aF0.0
aF0.0
aF0.017679185
aF0.024469784
aF0.020726155
aF0.060079016
aF0.022843733
aF0.07132453
aF0.0
aF0.005358978
aF0.048869383
asS'fucked'
p1165
(lp1166
F0.020047532
aF0.0
aF0.0
aF0.0
aF0.002803343
aF0.0
aF0.0
aF0.00865897
aF0.029129114
aF0.0
aF0.051542033
aF0.08027139
aF0.0
aF0.020336224
aF0.0
aF0.07365416
aF0.0
aF0.0
aF0.0
asS'fate'
p1167
(lp1168
F0.0
aF0.073332794
aF0.027033292
aF0.047534313
aF0.060794532
aF0.09355347
aF0.0
aF0.06306912
aF0.0
aF0.013822667
aF0.0
aF0.005318655
aF0.0026527967
aF0.042201597
aF0.12254882
aF0.072071016
aF0.0
aF0.089133285
aF0.0120149655
asS'skeptical'
p1169
(lp1170
F0.0
aF0.092455246
aF0.029047623
aF0.049365852
aF0.05404713
aF0.05423223
aF0.004019361
aF0.0
aF0.014863656
aF0.05513499
aF0.0
aF0.08995261
aF0.030759593
aF0.013712968
aF0.0
aF0.08252563
aF0.015511643
aF0.000118
aF0.0
asS'crushed'
p1171
(lp1172
F0.035603847
aF0.005738988
aF0.032268986
aF0.012358983
aF0.020971537
aF0.017655998
aF0.059153665
aF0.034410086
aF0.030966735
aF0.0
aF0.004226934
aF0.0
aF0.058595866
aF0.03256814
aF0.0367165
aF0.06650057
aF0.013678006
aF0.051536407
aF0.060112257
asS'Drug'
p1173
(lp1174
F0.0
aF0.040288292
aF0.01110766
aF0.024746688
aF0.06591924
aF0.07099491
aF0.021884361
aF0.0027843046
aF0.018180862
aF0.0
aF0.028593857
aF0.0
aF0.022893181
aF0.006193175
aF0.0
aF0.07790443
aF0.0
aF0.0
aF0.0
asS'Hey'
p1175
(lp1176
F0.0
aF0.0
aF0.0
aF0.0
aF0.0
aF0.0
aF0.0
aF0.0
aF0.0
aF0.0
aF0.0
aF0.0
aF0.0
aF0.0
aF0.0
aF0.0
aF0.0
aF0.0
aF0.0
asS'earnest'
p1177
(lp1178
F0.056183346
aF0.0
aF0.022841556
aF0.050678518
aF0.0
aF0.007092569
aF0.16392308
aF0.0
aF0.07426009
aF0.046426028
aF0.15031709
aF0.0
aF0.0
aF0.0
aF0.06762885
aF0.02749102
aF0.0
aF0.024241766
aF0.016622286
asS'five'
p1179
(lp1180
I0
aI0
aI0
aI0
aI0
aI0
aI0
aI0
aI0
aI0
aI0
aI0
aI0
aI0
aI0
aI0
aI0
aI0
aI0
asS'Classy'
p1181
(lp1182
F0.0
aF0.030373365
aF0.026003974
aF0.0
aF0.08573497
aF0.0
aF0.0686078
aF0.0
aF0.0544348
aF0.0005292347
aF0.0
aF0.03700636
aF0.0
aF0.003094596
aF0.03868326
aF6.769518e-05
aF0.0
aF0.030957595
aF0.0
asS'amp'
p1183
(lp1184
I0
aI0
aI0
aI0
aI0
aI0
aI0
aI0
aI0
aI0
aI0
aI0
aI0
aI0
aI0
aI0
aI0
aI0
aI0
asS'disappointed'
p1185
(lp1186
F0.026251638
aF0.056613423
aF0.0
aF0.0
aF0.026939971
aF0.009221407
aF0.025869697
aF0.14561819
aF0.0
aF0.0
aF0.0
aF0.07830246
aF0.012870093
aF0.0
aF0.025288375
aF0.0
aF0.032145903
aF0.0
aF0.050521307
asS'disadvantage'
p1187
(lp1188
F0.0
aF0.004036706
aF0.0
aF0.0
aF0.13707903
aF0.14678665
aF0.044457357
aF0.12720725
aF0.045324128
aF0.028685536
aF0.0
aF0.0
aF0.0
aF0.06586001
aF0.14342067
aF0.0
aF0.0
aF0.08938641
aF0.0
asS'distrustful'
p1189
(lp1190
F0.0
aF0.025141276
aF0.002265335
aF0.045778725
aF0.03740701
aF0.11453267
aF0.009037842
aF0.0
aF0.07455925
aF0.08547837
aF0.057007078
aF0.047949124
aF0.07740333
aF0.0
aF0.0
aF0.044350643
aF0.0
aF0.0
aF0.03289216
asS'60'
p1191
(lp1192
I0
aI0
aI0
aI0
aI0
aI0
aI0
aI0
aI0
aI0
aI0
aI0
aI0
aI0
aI0
aI0
aI0
aI0
aI0
asS'blemish'
p1193
(lp1194
F0.0
aF0.003632368
aF0.025722198
aF0.0
aF0.0
aF0.045842085
aF0.0
aF0.0
aF0.0
aF0.0
aF0.0
aF0.0
aF0.0
aF0.009442129
aF0.02954799
aF0.09577284
aF0.0
aF9.73e-05
aF0.001824891
asS'tormented'
p1195
(lp1196
F0.16271901
aF0.0
aF0.0
aF0.06531184
aF0.044523854
aF0.038853347
aF0.0
aF0.0
aF0.047587134
aF0.03770257
aF0.2099961
aF0.10591838
aF0.04462435
aF0.008624801
aF0.20507602
aF0.0
aF0.0
aF0.23861146
aF0.100628376
asS'success'
p1197
(lp1198
F0.15376318
aF0.1658193
aF0.061924983
aF0.2485787
aF0.0
aF0.05651114
aF0.037619863
aF0.0603967
aF0.0
aF0.02528249
aF0.024256058
aF0.05236973
aF0.035288937
aF0.036952287
aF0.015954398
aF0.0923459
aF0.0
aF0.029299
aF0.0553398
asS'Los'
p1199
(lp1200
I0
aI0
aI0
aI0
aI0
aI0
aI0
aI0
aI0
aI0
aI0
aI0
aI0
aI0
aI0
aI0
aI0
aI0
aI0
asS'zeal'
p1201
(lp1202
F0.19036393
aF0.24982157
aF0.23335281
aF0.0
aF0.08903341
aF0.089339234
aF0.060663845
aF0.0
aF0.20699279
aF0.094509505
aF0.17932382
aF0.043507174
aF0.14357875
aF0.13778187
aF0.0
aF0.0
aF0.09905498
aF0.0
aF0.13378425
asS'admitted'
p1203
(lp1204
F0.0
aF0.012346153
aF0.066301405
aF0.5682921
aF0.04850582
aF0.09421339
aF0.056175783
aF0.09769153
aF0.00025407647
aF0.017310115
aF0.0
aF0.0
aF0.0076465285
aF0.050026894
aF0.0
aF0.046539735
aF0.0
aF0.0
aF0.031929977
asS'cooler'
p1205
(lp1206
F0.0
aF0.017756263
aF0.02171483
aF0.002856322
aF0.004633379
aF0.0
aF0.05212522
aF0.03435602
aF0.0
aF0.002358244
aF0.06340287
aF0.017824676
aF0.005642198
aF0.049280815
aF0.0
aF0.001763225
aF0.025118886
aF0.019011399
aF0.03222379
asS'disillusioned'
p1207
(lp1208
F0.001270801
aF0.0
aF0.010685673
aF0.07311661
aF0.004970824
aF0.033125356
aF0.0
aF0.035857655
aF0.03389081
aF0.12140278
aF0.085425355
aF0.12883662
aF0.034645427
aF0.0
aF0.0
aF0.0
aF0.030494876
aF0.008934752
aF0.022520492
asS'provoking'
p1209
(lp1210
F0.0
aF0.0
aF0.10873237
aF0.0
aF0.243202507
aF0.303545144
aF0.14161405
aF0.209622
aF0.13913976
aF0.22555819
aF0.42532687
aF0.6236271
aF0.123055995
aF0.30289492
aF0.011876849
aF0.12956305
aF0.0
aF0.015455002
aF0.0
asS'disorder'
p1211
(lp1212
F0.031787347
aF0.0
aF0.0
aF0.05169545
aF0.08563138
aF0.0
aF0.006589273
aF0.0
aF0.0
aF0.035239432
aF0.1658961
aF0.10686851
aF0.0
aF0.0
aF0.047875416
aF0.0
aF0.0
aF0.14365888
aF0.0
asS'page'
p1213
(lp1214
F0.064160936
aF0.0076039066
aF0.03875697
aF0.0
aF0.0
aF0.0
aF0.0405357
aF0.054164954
aF0.0
aF0.0061015394
aF0.044659846
aF0.0
aF0.0
aF0.052426916
aF0.022648713
aF0.00665646
aF0.0
aF0.05977276
aF0.02835249
asS'Pharmaceutical'
p1215
(lp1216
F0.019802812
aF0.06268788
aF0.036122937
aF0.07077376
aF0.05678504
aF0.01737654
aF0.061625574
aF0.03748671
aF0.041931108
aF0.07054526
aF0.04338046
aF0.06050635
aF0.0
aF0.008119435
aF0.07966675
aF0.02005052
aF0.0
aF0.051858705
aF0.039151702
asS'right'
p1217
(lp1218
F0.020530734
aF0.0
aF0.0
aF0.02805255
aF0.10642807
aF0.054486662
aF0.0
aF0.052931763
aF0.0
aF0.010527166
aF0.0
aF0.01545447
aF0.06660802
aF0.05301747
aF0.0
aF0.0
aF0.0
aF0.0
aF0.0
asS'honored'
p1219
(lp1220
F0.027351568
aF0.0
aF0.14885369
aF0.4676659
aF0.0
aF0.0
aF0.0
aF0.0
aF0.0
aF0.0
aF0.0
aF0.0
aF0.0
aF0.0
aF0.0
aF0.0
aF0.0
aF0.0
aF0.0
asS'people'
p1221
(lp1222
F0.0
aF0.04669247
aF0.010862104
aF0.06058159
aF0.11037636
aF0.0
aF0.0
aF0.0
aF0.0
aF0.0
aF0.013085729
aF0.0
aF0.017786877
aF0.035433322
aF0.0
aF0.020117242
aF6.07115e-05
aF0.0
aF0.05943117
asS"punishment'"
p1223
(lp1224
F0.044141702
aF0.006945196
aF0.020797024
aF0.04655263
aF0.08948554
aF0.15105164
aF0.0
aF0.06497147
aF0.054311596
aF0.055887893
aF0.07502614
aF0.1727698
aF0.06761721
aF0.013762579
aF0.0
aF0.1638629
aF0.0010799805
aF0.025210455
aF0.0046094623
asS'scared'
p1225
(lp1226
F0.0
aF0.0
aF0.0
aF0.0
aF0.5983263
aF0.11926757
aF0.0
aF0.0
aF0.029541323
aF0.0
aF0.0
aF0.15296556
aF0.0
aF0.0
aF0.0
aF0.0
aF0.0
aF0.0
aF0.0
asS'back'
p1227
(lp1228
F0.0
aF0.027622689
aF0.047654312
aF0.02576542
aF0.0015774323
aF0.0
aF0.0075444267
aF0.012848172
aF0.035477474
aF0.0
aF0.0
aF0.028129142
aF0.010718635
aF0.01858035
aF0.0
aF0.08363792
aF0.055959534
aF0.0
aF0.0
asS'hail'
p1229
(lp1230
F0.12474957
aF0.15921296
aF0.17105421
aF0.10432242
aF0.006558199
aF0.09540322
aF0.08981485
aF0.188162
aF0.019236358
aF0.013335206
aF0.049796488
aF0.086669154
aF0.11572936
aF0.007531109
aF0.062159114
aF0.13308984
aF0.005415394
aF0.00270434
aF0.0
asS'Andy'
p1231
(lp1232
I0
aI0
aI0
aI0
aI0
aI0
aI0
aI0
aI0
aI0
aI0
aI0
aI0
aI0
aI0
aI0
aI0
aI0
aI0
asS'curious'
p1233
(lp1234
F0.09005006
aF0.099994555
aF0.15181056
aF0.013366137
aF0.070720986
aF0.09183973
aF0.18923031
aF0.2144412
aF0.14294977
aF0.11771155
aF0.08179027
aF0.07203641
aF0.09401339
aF0.2921547
aF0.06979387
aF0.08935081
aF0.11187036
aF0.041964475
aF0.061822332
asS'denies'
p1235
(lp1236
F0.06622221
aF0.015360737
aF0.0
aF0.016082725
aF0.10001522
aF0.003808256
aF0.0
aF0.0
aF0.0
aF0.0
aF0.008148158
aF0.021787412
aF0.010016871
aF0.007362209
aF0.022269215
aF0.25426917
aF0.044932343
aF0.0
aF0.0
asS'helplessness'
p1237
(lp1238
F0.0
aF0.0
aF0.0
aF0.0
aF0.30440333
aF0.42021915
aF0.0
aF0.0
aF0.4496484
aF0.44745308
aF0.3314784
aF0.34706765
aF0.0
aF0.0
aF0.89770466
aF0.0
aF0.0
aF0.4215543
aF0.0
asS'ecstatic'
p1239
(lp1240
F0.6040085
aF0.11531283
aF0.19971947
aF0.0
aF0.0
aF0.0
aF0.3638526
aF0.1930377
aF0.0
aF0.0
aF0.0
aF0.0
aF0.2619825
aF0.0407237
aF0.0
aF0.0
aF0.06737162
aF0.0
aF0.050862193
asS'withdrawn'
p1241
(lp1242
F0.0
aF0.0
aF0.0
aF0.2121548
aF0.050350428
aF0.0030065724
aF0.0
aF0.085264765
aF0.033868674
aF0.08366241
aF0.089992985
aF0.05545677
aF0.016890774
aF0.0
aF0.045915056
aF0.1346367
aF0.0
aF0.0
aF0.002748034
asS'deyknowweknow'
p1243
(lp1244
F0.0
aF0.0
aF0.0
aF0.0
aF0.0
aF0.0
aF0.0
aF0.0
aF0.0
aF0.0
aF0.0
aF0.0
aF0.0
aF0.0
aF0.0
aF0.0
aF0.0
aF0.0
aF0.0
asS'continue'
p1245
(lp1246
F0.0
aF0.045762498
aF0.029252252
aF0.05590698
aF0.032790184
aF0.0110102305
aF0.047468897
aF0.0
aF0.00022936519
aF0.0
aF0.099712774
aF0.0
aF0.036207758
aF0.09232813
aF0.000386979
aF0.051366393
aF0.07989365
aF0.0
aF0.0
asS'Facebook'
p1247
(lp1248
F0.0
aF0.0
aF0.0
aF0.0
aF0.0
aF0.0
aF0.0
aF0.0
aF0.0
aF0.0
aF0.0
aF0.0
aF0.0
aF0.0
aF0.0
aF0.0
aF0.0
aF0.0
aF0.0
asS'dollar.'
p1249
(lp1250
F0.0
aF0.0
aF0.05085457
aF0.047485083
aF0.0014358651
aF0.020673295
aF0.077711955
aF0.0
aF0.029222617
aF0.06394305
aF0.019151816
aF0.0
aF0.0
aF0.15798348
aF0.014128407
aF0.042608883
aF0.10482271
aF0.005171852
aF0.004171725
asS'Irrelevant'
p1251
(lp1252
F0.030857308
aF0.0
aF0.0
aF0.008920922
aF0.0
aF0.0
aF0.035051662
aF0.0
aF0.0
aF0.0
aF0.039228182
aF0.0
aF0.0
aF0.077381134
aF0.0
aF0.0
aF0.0
aF0.015223577
aF0.0019080807
asS'Thanks'
p1253
(lp1254
F0.047664326
aF0.030779073
aF0.16796367
aF0.053625327
aF0.015562485
aF0.0
aF0.09083341
aF0.05089354
aF0.0
aF0.0
aF0.0
aF0.0
aF0.10800175
aF0.025571391
aF0.0
aF0.040309917
aF0.6985819
aF0.0
aF0.05496991
asS'patient'
p1255
(lp1256
F0.0
aF0.20135412
aF0.050234735
aF0.014853102
aF0.0
aF0.0
aF0.009317499
aF0.0
aF0.0
aF0.0
aF0.0
aF0.0
aF0.0
aF0.02351263
aF0.0
aF0.0
aF0.0
aF0.0
aF0.0
asS'bold'
p1257
(lp1258
F0.0
aF0.004906483
aF0.0
aF0.0
aF0.0
aF0.007206459
aF0.0
aF0.16537929
aF0.0
aF0.0
aF0.0
aF0.0
aF0.0
aF0.0
aF0.0
aF0.0
aF0.0
aF0.0
aF0.0
asS'post'
p1259
(lp1260
F0.0
aF0.009807446
aF0.019056873
aF0.072292484
aF0.039938387
aF0.018876765
aF0.07338201
aF0.031039074
aF0.060942605
aF0.05265118
aF0.049507163
aF0.04974955
aF0.04810093
aF0.041757237
aF0.10716747
aF0.0
aF0.0
aF0.08508153
aF0.019367946
asS'suspends'
p1261
(lp1262
F0.0
aF0.015359011
aF0.0
aF0.07150853
aF0.023597697
aF0.0980466
aF0.020282589
aF0.0
aF0.042741273
aF0.018601649
aF0.0011757499
aF0.03336658
aF0.017188866
aF0.0
aF0.0335068
aF0.14573133
aF0.0
aF0.0
aF0.0
asS'malicious'
p1263
(lp1264
F0.0
aF0.0
aF0.0
aF0.0
aF0.0
aF0.023592874
aF0.0
aF0.0
aF0.067075305
aF0.0
aF0.004399512
aF0.0
aF0.0
aF0.0
aF0.025272736
aF0.019919865
aF0.0
aF0.02852733
aF0.0
asS'uneasy'
p1265
(lp1266
F0.0
aF0.07145053
aF0.0
aF0.0
aF0.0585476
aF0.16578601
aF0.054093517
aF0.033504
aF0.07061455
aF0.09522784
aF0.01733795
aF0.08138417
aF0.08937805
aF0.0
aF0.002793877
aF0.0
aF0.0
aF0.012470208
aF0.017834613
asS'despicable'
p1267
(lp1268
F0.0
aF0.0
aF0.0
aF0.0
aF0.0
aF0.10188282
aF0.0
aF0.0
aF0.11589251
aF0.116445534
aF0.0
aF0.0
aF0.0
aF0.0
aF0.0
aF0.39924487
aF0.0
aF0.0
aF0.0
asS'defensive'
p1269
(lp1270
F0.0
aF0.012114177
aF0.030186178
aF0.0
aF0.036997426
aF0.019959226
aF0.05770802
aF0.010943405
aF0.041205592
aF0.055726252
aF0.048654165
aF0.061711114
aF0.032554854
aF0.071402514
aF0.008100854
aF0.100941
aF0.0
aF0.030570574
aF0.0
asS'found'
p1271
(lp1272
F0.037131738
aF0.053282857
aF0.028528737
aF0.0818956
aF0.029711705
aF0.25143418
aF0.21029891
aF0.23650368
aF0.04402012
aF0.060079068
aF0.022472154
aF0.013228611
aF0.047818087
aF0.07763735
aF0.0782559
aF0.07564116
aF0.011518511
aF0.042375978
aF0.030681733
asS'Davis'
p1273
(lp1274
F0.0
aF0.0
aF0.0
aF0.0
aF0.0
aF0.0
aF0.0
aF0.0
aF0.0
aF0.0
aF0.0
aF0.0
aF0.0
aF0.0
aF0.0
aF0.0
aF0.0
aF0.0
aF0.0
asS'talking'
p1275
(lp1276
F0.0
aF0.053775154
aF0.05706085
aF0.08905593
aF0.10444604
aF0.017734641
aF0.0015105214
aF0.016689863
aF0.0
aF0.0
aF0.039130278
aF0.0158033
aF0.04118014
aF0.14821704
aF0.0
aF0.0
aF0.0
aF0.0
aF0.13028093
asS'analyses'
p1277
(lp1278
F0.026797256
aF0.0
aF0.030424444
aF0.0
aF0.045452368
aF0.010474276
aF0.010363748
aF0.0
aF0.04895074
aF0.012284648
aF0.029447176
aF0.0
aF0.016112339
aF0.029886223
aF0.0
aF0.024863355
aF0.038863424
aF0.0201666
aF0.0154794445
asS'fondness'
p1279
(lp1280
F0.15789929
aF0.123784155
aF0.4672257
aF0.10032918
aF0.0
aF0.0
aF0.20620024
aF0.0
aF0.0
aF0.0
aF0.0
aF0.0
aF0.052378755
aF0.22983555
aF0.0
aF0.0
aF0.3142693
aF0.0
aF0.29048544
asS'panel'
p1281
(lp1282
F0.0
aF0.012515551
aF0.030083733
aF0.0
aF0.018634882
aF0.008959266
aF0.014511142
aF0.032417823
aF0.0
aF0.0041202507
aF0.031643532
aF0.0
aF0.0
aF0.03762882
aF0.041288957
aF0.010243135
aF0.011943242
aF0.04743628
aF0.0
asS'cautious'
p1283
(lp1284
F0.055280507
aF0.31317747
aF0.062750354
aF0.03128639
aF0.20905267
aF0.162143
aF0.0
aF0.061266266
aF0.07688637
aF0.048842065
aF0.062069356
aF0.04907893
aF0.20504525
aF0.042915054
aF0.09332909
aF0.085284606
aF0.07806394
aF0.039029293
aF0.023502285
asS'world'
p1285
(lp1286
F0.05304158
aF0.0
aF0.0
aF0.08815028
aF0.02350442
aF0.03772069
aF0.0
aF0.0
aF0.0
aF0.0
aF0.0021902295
aF0.0
aF0.0
aF0.39058572
aF0.0
aF0.063054964
aF0.00028916713
aF0.008427421
aF0.15677787
asS'boiling'
p1287
(lp1288
F0.002365405
aF0.0
aF0.00134211
aF0.062803164
aF0.003193999
aF0.031440165
aF0.003440928
aF0.0
aF0.0
aF0.06639227
aF0.16941838
aF0.12017351
aF0.026904482
aF0.048364937
aF0.0
aF0.026961526
aF0.0
aF0.0
aF0.0
asS'capable'
p1289
(lp1290
F0.02139955
aF0.051975545
aF0.354619003
aF0.0
aF0.0
aF0.0
aF0.00462564
aF0.0
aF0.0
aF0.0
aF0.003138796
aF0.01754451
aF0.11518537
aF0.156159
aF0.044467706
aF0.10123293
aF0.004149557
aF0.0
aF0.0
asS'Check'
p1291
(lp1292
F0.026059033
aF0.004641246
aF0.018822925
aF0.06364326
aF0.035248443
aF0.052139513
aF0.0386671
aF0.018334417
aF0.0
aF0.0
aF0.07325178
aF0.032904517
aF0.014368386
aF0.045188874
aF0.0
aF0.0
aF0.010477082
aF0.0
aF0.060319792
asS'stand'
p1293
(lp1294
F0.0
aF0.034982122
aF0.12802258
aF0.55376893
aF0.064625606
aF0.011658867
aF0.13293362
aF0.013706215
aF0.02478703
aF0.022640388
aF0.0073953643
aF0.009367055
aF0.0072408435
aF0.0
aF0.0018290755
aF0.13815227
aF0.032378938
aF0.008408344
aF0.12579703
asS'scornful'
p1295
(lp1296
F0.0
aF0.0
aF0.0
aF0.0
aF0.058776334
aF0.0
aF0.0
aF0.0
aF0.23236626
aF0.27569523
aF0.06711581
aF0.103977755
aF0.0
aF0.0
aF0.0
aF0.2648307
aF0.0
aF0.0
aF0.0
asS'perky'
p1297
(lp1298
F0.0
aF0.06934535
aF0.0
aF0.004364872
aF0.0
aF0.045789167
aF0.04388526
aF0.051665585
aF0.0
aF0.0
aF0.0
aF0.0
aF0.0
aF0.032184966
aF0.016127324
aF0.002833631
aF0.0
aF0.0
aF0.000369
asS'hatred'
p1299
(lp1300
F0.06897499
aF0.1286009
aF0.3153313
aF0.0
aF0.32842085
aF0.13026527
aF0.16928506
aF0.0
aF0.9282625
aF0.3670477
aF0.5260244
aF0.5765253
aF0.015280667
aF0.06158497
aF0.21924911
aF0.14459498
aF0.025645357
aF0.22990505
aF0.20999497
asS'youthful'
p1301
(lp1302
F0.022209404
aF0.08618178
aF0.0
aF0.0
aF0.0
aF0.0
aF0.0
aF0.0
aF0.0
aF0.0
aF0.04120478
aF0.02604132
aF0.008494031
aF0.022650415
aF0.015707614
aF0.0
aF0.0
aF0.0
aF0.00692618
asS'letter'
p1303
(lp1304
F0.0
aF0.0
aF0.0
aF0.074084476
aF0.027177943
aF0.0
aF0.0
aF0.03668604
aF0.0
aF0.0
aF0.002418142
aF0.018616952
aF0.0
aF0.032822486
aF0.0
aF0.016135216
aF0.015380361
aF0.036723655
aF0.029179484
asS'Nike'
p1305
(lp1306
F0.0
aF0.0
aF0.0
aF0.0
aF0.0
aF0.0
aF0.0
aF0.0
aF0.0
aF0.0
aF0.0
aF0.0
aF0.0
aF0.0
aF0.0
aF0.0
aF0.0
aF0.0
aF0.0
asS'delighted'
p1307
(lp1308
F0.6832611
aF0.1211491
aF0.3989857
aF0.013005005
aF0.0
aF0.0
aF0.49481416
aF0.42801398
aF0.0
aF0.0
aF0.0
aF0.0
aF0.27773958
aF0.15395947
aF0.0
aF0.0
aF0.211179
aF0.0
aF0.1826095
asS'IPTL2'
p1309
(lp1310
F0.0
aF0.0
aF0.0
aF0.0
aF0.0
aF0.0
aF0.0
aF0.0
aF0.0
aF0.0
aF0.0
aF0.0
aF0.0
aF0.0
aF0.0
aF0.0
aF0.0
aF0.0
aF0.0
asS'CNN'
p1311
(lp1312
F0.0
aF0.0
aF0.0
aF0.0
aF0.0
aF0.0
aF0.0
aF0.0
aF0.0
aF0.0
aF0.0
aF0.0
aF0.0
aF0.0
aF0.0
aF0.0
aF0.0
aF0.0
aF0.0
asS'lively'
p1313
(lp1314
F0.09182031
aF0.023523105
aF0.0
aF0.0
aF0.0
aF0.0
aF0.022083292
aF0.02593009
aF0.004081656
aF0.0
aF0.005128299
aF0.0
aF0.0
aF0.08833544
aF0.0
aF0.0
aF0.01675843
aF0.0
aF0.059442997
asS'Includes'
p1315
(lp1316
F0.0
aF0.014605751
aF0.0
aF0.025053492
aF0.011411926
aF0.03252181
aF0.01911962
aF0.018081632
aF0.01690932
aF0.023306007
aF0.032750685
aF0.03586369
aF0.025470182
aF0.011688438
aF0.034788173
aF0.0
aF0.02234693
aF0.015386072
aF0.020936461
asS'frightened'
p1317
(lp1318
F0.0
aF0.0
aF0.0
aF0.0
aF0.5466754
aF0.12747169
aF0.0
aF0.0
aF0.0
aF0.0
aF0.10472241
aF0.043291893
aF0.0
aF0.0
aF0.0
aF0.07545673
aF0.0
aF0.028130112
aF0.0
asS'jubilee'
p1319
(lp1320
F0.60047536
aF0.4551347
aF0.04654516
aF0.019355975
aF0.0
aF0.0
aF0.2068012
aF0.14957567
aF0.0
aF0.0
aF0.0
aF0.0
aF0.1942439
aF0.0
aF0.0
aF0.0
aF0.026285928
aF0.0
aF0.0
asS'Tendulkar'
p1321
(lp1322
F0.0
aF0.0
aF0.0
aF0.0
aF0.0
aF0.0
aF0.0
aF0.0
aF0.0
aF0.0
aF0.0
aF0.0
aF0.0
aF0.0
aF0.0
aF0.0
aF0.0
aF0.0
aF0.0
asS'fight'
p1323
(lp1324
F0.009411947
aF0.02316189
aF0.046256028
aF0.013102463
aF0.07577421
aF0.0
aF0.055273034
aF0.015736006
aF0.02970477
aF0.008682404
aF0.19604519
aF0.042648315
aF0.015712798
aF0.003934588
aF0.009314738
aF0.031708747
aF0.010739289
aF0.019959988
aF0.006809267
asS'stamina'
p1325
(lp1326
F0.0
aF0.0
aF0.0
aF0.0
aF0.0
aF0.0
aF0.0
aF0.0
aF0.0
aF0.0
aF0.0
aF0.0
aF0.0
aF0.0
aF0.0
aF0.0
aF0.0
aF0.0
aF0.0
asS'victorious'
p1327
(lp1328
F0.09799289
aF0.05650372
aF0.050264392
aF0.07377318
aF0.013742873
aF0.0248628
aF0.0
aF0.010089858
aF0.038711123
aF0.0
aF0.026004542
aF0.0
aF0.050496284
aF0.011659643
aF0.0
aF0.0
aF0.0
aF0.0
aF0.03147646
asS'bbcworldservice'
p1329
(lp1330
F0.0
aF0.0
aF0.0
aF0.0
aF0.0
aF0.0
aF0.0
aF0.0
aF0.0
aF0.0
aF0.0
aF0.0
aF0.0
aF0.0
aF0.0
aF0.0
aF0.0
aF0.0
aF0.0
asS'stars'
p1331
(lp1332
F0.0
aF0.0
aF0.015218986
aF0.06894668
aF0.015354203
aF0.0
aF0.0
aF0.06697466
aF0.016287405
aF0.014146362
aF0.019325232
aF0.0
aF0.0
aF0.0
aF0.0
aF0.05058076
aF0.009627408
aF0.0
aF0.06102635
asS'amuse '
p1333
(lp1334
F0.3117193
aF0.097438745
aF0.3442384
aF0.103309326
aF0.0
aF0.0
aF0.53448224
aF0.2560874
aF0.0
aF0.0
aF0.0
aF0.0
aF0.14237006
aF0.07246269
aF0.0
aF0.0
aF0.13450666
aF0.0
aF0.08315413
asS'forward'
p1335
(lp1336
F0.0
aF0.026025532
aF0.013382028
aF0.10342583
aF0.0072339345
aF0.0
aF0.0
aF0.0
aF0.0
aF0.0
aF0.008382044
aF0.029046118
aF0.01296271
aF0.004836722
aF0.0
aF0.21308011
aF0.0
aF0.0
aF0.007064037
asS'brave.'
p1337
(lp1338
F0.0
aF0.12137876
aF0.12751454
aF0.02339893
aF0.13040571
aF0.0
aF0.0
aF0.0
aF0.0
aF0.0
aF0.03664298
aF0.032054655
aF0.0
aF0.009798017
aF0.030671733
aF0.051262483
aF0.021503946
aF0.056276616
aF0.0781342
asS'war'
p1339
(lp1340
F0.0
aF0.023980478
aF0.004858972
aF0.025153322
aF0.09191963
aF0.0
aF0.002789707
aF0.000161
aF0.0
aF0.0
aF0.10334461
aF0.08271018
aF0.0
aF0.049515203
aF0.0
aF0.07702069
aF0.0
aF0.045507826
aF0.052334934
asS'Djokovic'
p1341
(lp1342
F0.0
aF0.0
aF0.0
aF0.0
aF0.0
aF0.0
aF0.0
aF0.0
aF0.0
aF0.0
aF0.0
aF0.0
aF0.0
aF0.0
aF0.0
aF0.0
aF0.0
aF0.0
aF0.0
asS'perplexing'
p1343
(lp1344
F0.0
aF0.0
aF0.0
aF0.0
aF0.096163675
aF0.20544963
aF0.0
aF0.0
aF0.032271363
aF0.056537375
aF0.0
aF0.0
aF0.0
aF0.0
aF0.0
aF0.224882434
aF0.0
aF0.0
aF0.0
asS'unreliably'
p1345
(lp1346
F0.07600866
aF0.05398841
aF0.009999953
aF0.022309296
aF0.013903162
aF0.018434884
aF0.0
aF0.0
aF0.0
aF0.0
aF0.0
aF0.0
aF0.023601623
aF0.0
aF0.0
aF0.105612
aF0.0
aF0.0
aF0.08332154
asS'relaxed'
p1347
(lp1348
F0.12606068
aF0.067596056
aF0.033293925
aF0.08880926
aF0.0
aF0.0
aF0.021898208
aF0.03355162
aF0.0
aF0.0
aF0.0
aF0.0
aF0.04888495
aF0.03355162
aF0.0
aF0.0
aF0.0
aF0.0
aF0.0
asS'pe'
p1349
(lp1350
F0.0
aF0.0
aF0.0
aF0.0
aF0.0
aF0.0
aF0.0
aF0.0
aF0.0
aF0.0
aF0.0
aF0.0
aF0.0
aF0.0
aF0.0
aF0.0
aF0.0
aF0.0
aF0.0
asS'pleased'
p1351
(lp1352
F0.0
aF0.0
aF0.0
aF0.0
aF0.022863235
aF0.0
aF0.0
aF0.03276346
aF0.0
aF0.0
aF0.0
aF0.033334084
aF0.0
aF0.02734141
aF0.000557
aF0.0
aF0.0
aF0.0
aF0.0
asS'forever'
p1353
(lp1354
F0.0006257718
aF0.009297415
aF0.019887801
aF0.0
aF0.06485367
aF0.0
aF0.02481342
aF0.0
aF0.0
aF0.0
aF0.035952937
aF0.0
aF0.0
aF0.0
aF0.0
aF0.0
aF0.07333353
aF0.019958757
aF0.17979859
asS'contract'
p1355
(lp1356
F0.0
aF0.013700544
aF0.021738729
aF0.08734402
aF0.0036540397
aF0.0
aF0.043466132
aF0.051398672
aF0.0698797
aF0.052494995
aF0.03166768
aF0.0
aF0.019527985
aF0.10605229
aF0.0
aF0.03954505
aF0.0
aF0.0
aF0.11340832
asS'on top of the world'
p1357
(lp1358
F0.023398273
aF0.006265636
aF0.0
aF0.0
aF0.0
aF0.0
aF0.0
aF0.003849875
aF0.0
aF0.0
aF0.075048015
aF0.06283571
aF0.061841723
aF0.07877839
aF0.0
aF0.0
aF0.019945346
aF0.0
aF0.002767046
asS'contempt'
p1359
(lp1360
F0.0
aF0.0
aF0.0
aF0.0
aF0.19508837
aF0.29893306
aF0.0
aF0.0
aF0.501394
aF0.5219945
aF0.27987868
aF0.3656006
aF0.0
aF0.0
aF0.21550632
aF0.38695005
aF0.0
aF0.10925655
aF0.0
asS'unreliable'
p1361
(lp1362
F0.07600866
aF0.05398841
aF0.009999953
aF0.022309296
aF0.013903162
aF0.018434884
aF0.0
aF0.0
aF0.0
aF0.0
aF0.0
aF0.0
aF0.023601623
aF0.0
aF0.0
aF0.105612
aF0.0
aF0.0
aF0.08332154
asS'ha'
p1363
(lp1364
I0
aI0
aI0
aI0
aI0
aI0
aI0
aI0
aI0
aI0
aI0
aI0
aI0
aI0
aI0
aI0
aI0
aI0
aI0
asS'dull'
p1365
(lp1366
F0.09610046
aF0.010387986
aF0.0
aF0.03039331
aF0.0
aF0.012455018
aF0.054174423
aF0.012324581
aF0.045269653
aF0.057893857
aF0.0
aF0.060532816
aF0.1044792
aF0.1023957
aF0.06475262
aF0.004221894
aF0.09829722
aF0.05100097
aF0.0
asS'humiliate'
p1367
(lp1368
F0.0
aF0.0
aF0.0
aF0.0
aF0.25487532
aF0.28499348
aF0.0
aF0.0
aF0.51638926
aF0.49594943
aF0.36234003
aF0.43278745
aF0.0
aF0.0
aF0.47490085
aF0.17050989
aF0.0
aF0.5594376
aF0.0
asS"I'll"
p1369
(lp1370
F0.0
aF0.0
aF0.0
aF0.0
aF0.0
aF0.0
aF0.0
aF0.0
aF0.0
aF0.0
aF0.0
aF0.0
aF0.0
aF0.0
aF0.0
aF0.0
aF0.0
aF0.0
aF0.0
asS'charmed'
p1371
(lp1372
F0.06654811
aF0.08233861
aF0.20676155
aF0.08330969
aF0.0
aF0.0
aF0.3572646
aF0.32500792
aF0.0
aF0.0
aF0.0
aF0.0
aF0.0
aF0.090735205
aF0.0
aF0.0
aF0.051763114
aF0.0
aF0.06407773
asS'rejection'
p1373
(lp1374
F0.0
aF0.0
aF0.0
aF0.0
aF0.0853688
aF0.1393791
aF0.0
aF0.0
aF0.17352232
aF0.25513852
aF0.062080517
aF0.19894664
aF0.0
aF0.0
aF0.13984609
aF0.4500546
aF0.0
aF0.054387957
aF0.0
asS'IStandWithMaria'
p1375
(lp1376
F0.0
aF0.026236592
aF0.596016936
aF0.4153267
aF0.048469204
aF0.00874415
aF0.09970021
aF0.010279661
aF0.018590271
aF0.01698029
aF0.005546523
aF0.007025291
aF0.005430633
aF0.0
aF0.001371807
aF0.1036142
aF0.024284203
aF0.006306258
aF0.094347775
asS'Murray'
p1377
(lp1378
F0.0
aF0.0
aF0.0
aF0.0
aF0.0
aF0.0
aF0.0
aF0.0
aF0.0
aF0.0
aF0.0
aF0.0
aF0.0
aF0.0
aF0.0
aF0.0
aF0.0
aF0.0
aF0.0
asS'adore'
p1379
(lp1380
F0.23805127
aF0.11041565
aF1.0
aF0.20307533
aF0.0
aF0.0
aF0.3801248
aF0.08218862
aF0.0
aF0.0
aF0.0
aF0.0
aF0.17493084
aF0.10069592
aF0.0
aF0.0
aF0.25621343
aF0.0
aF1.0
asS'reprimand'
p1381
(lp1382
F0.0
aF0.0
aF0.0
aF0.0
aF0.053104293
aF0.02957091
aF0.0
aF0.0
aF0.04555844
aF0.045594197
aF0.011402206
aF0.07617715
aF0.0
aF0.0
aF0.022127457
aF0.67406213
aF0.0
aF0.0
aF0.0
asS'problem'
p1383
(lp1384
F0.002928842
aF0.009481038
aF0.0638221
aF0.023177221
aF0.15852259
aF0.050671194
aF0.0
aF0.036638983
aF0.0
aF0.0
aF0.006233372
aF0.05312844
aF0.013434351
aF0.000733
aF0.0
aF0.11789963
aF0.0
aF0.019882653
aF0.009647247
asS'horrifying'
p1385
(lp1386
F0.0
aF0.0
aF0.0
aF0.0
aF0.8191587
aF0.3421643
aF0.0
aF0.0
aF0.06895001
aF0.03840112
aF0.025985822
aF0.062491167
aF0.0
aF0.0
aF0.069282405
aF0.046947576
aF0.0
aF0.13095942
aF0.0
asS'powerless'
p1387
(lp1388
F0.0
aF0.0
aF0.0
aF0.0
aF0.09828244
aF0.013910885
aF0.0
aF0.0
aF0.062127132
aF0.07437807
aF0.09440368
aF0.04390211
aF0.0
aF0.0
aF0.05591946
aF0.023822147
aF0.0
aF0.08844536
aF0.0
asS'falungong'
p1389
(lp1390
F0.0
aF0.0
aF0.0
aF0.0
aF0.0
aF0.0
aF0.0
aF0.0
aF0.0
aF0.0
aF0.0
aF0.0
aF0.0
aF0.0
aF0.0
aF0.0
aF0.0
aF0.0
aF0.0
asS'sponsor'
p1391
(lp1392
F0.006205402
aF0.0
aF0.008040868
aF0.091908954
aF0.014694355
aF0.026869373
aF0.004110087
aF0.04523852
aF0.00715251
aF0.021654999
aF0.0
aF0.002138276
aF0.0
aF0.04375099
aF0.035668653
aF0.11233033
aF0.03530463
aF0.0
aF0.0
asS'Announcement'
p1393
(lp1394
F0.052453604
aF0.04202499
aF0.021798989
aF0.11626905
aF0.06963
aF0.11555335
aF0.029720305
aF0.2324726
aF0.0
aF0.03488258
aF0.0
aF0.052266505
aF0.21062635
aF0.012253793
aF0.058948763
aF0.077717714
aF0.0
aF0.07293154
aF0.0
asS'USA'
p1395
(lp1396
F0.015453344
aF0.0
aF0.0
aF0.016801065
aF0.0
aF0.053455338
aF0.0095797125
aF0.016968252
aF0.0
aF0.0
aF0.029991245
aF0.0
aF0.0
aF0.030658778
aF0.02213205
aF0.0
aF0.031392135
aF0.0005710767
aF0.031224925
asS'certain'
p1397
(lp1398
F0.014917831
aF0.10366085
aF0.09097889
aF0.08320983
aF0.0
aF0.0
aF0.0489788
aF0.0930717
aF0.0
aF0.0
aF0.0
aF0.0
aF0.101366945
aF0.043447815
aF0.0
aF0.0
aF0.0
aF0.0
aF0.0
asS'New'
p1399
(lp1400
F0.058205657
aF0.013724146
aF0.039788824
aF0.023947654
aF0.015158149
aF0.09850856
aF0.07545452
aF0.11071149
aF0.0
aF0.0
aF0.0
aF0.0
aF0.11915806
aF0.048715238
aF0.0
aF0.04588161
aF0.0
aF0.0
aF0.005393165
asS'meldonium'
p1401
(lp1402
F0.0
aF0.0
aF0.0
aF0.0
aF0.003167
aF0.000819
aF0.0
aF0.0
aF0.0061227
aF0.00502
aF0.0
aF0.0
aF0.0
aF0.000612
aF0.0
aF0.009936
aF0.0
aF0.0
aF0.0
asS'shit'
p1403
(lp1404
F0.0
aF0.009753757
aF0.040616393
aF0.0
aF0.0
aF0.005502808
aF0.06513069
aF0.084417984
aF0.070423625
aF0.0
aF0.0
aF0.0
aF0.0
aF0.024121543
aF0.029391369
aF0.0
aF0.028443826
aF0.0
aF0.02962174
asS'Mar'
p1405
(lp1406
F0.06949245
aF0.0154168485
aF0.0
aF0.0
aF0.0
aF0.02196884
aF0.0020533372
aF0.0
aF0.0
aF0.0
aF0.06092374
aF0.0
aF0.079558894
aF0.023441464
aF0.08234732
aF0.110540815
aF0.0
aF0.0
aF0.0517463
asS'pensive'
p1407
(lp1408
F0.0
aF0.0
aF0.0
aF0.0
aF0.05669343
aF0.10333616
aF0.0
aF0.0
aF0.013728131
aF0.0
aF0.027943693
aF0.030986654
aF0.037128508
aF0.0
aF0.0
aF0.0
aF0.0
aF0.0
aF0.0
asS'no'
p1409
(lp1410
I0
aI0
aI0
aI0
aI0
aI0
aI0
aI0
aI0
aI0
aI0
aI0
aI0
aI0
aI0
aI0
aI0
aI0
aI0
asS'Banned'
p1411
(lp1412
F0.1291275
aF0.050597798
aF0.033688024
aF0.10143838
aF0.035245348
aF0.0
aF0.046662748
aF0.004605424
aF0.07124085
aF0.067894526
aF0.01481903
aF0.0
aF0.0
aF0.0
aF0.09893118
aF0.24784242
aF0.031358864
aF0.03685327
aF0.03118609
asS'Never'
p1413
(lp1414
F0.0655533
aF0.0
aF0.08269313
aF0.0
aF0.095324315
aF0.0
aF0.027512679
aF0.04428258
aF0.013533711
aF0.0
aF0.0
aF0.0
aF0.0
aF0.0
aF0.0
aF0.047119644
aF0.0085255625
aF0.0
aF0.20385952
asS'offensive'
p1415
(lp1416
F0.0
aF0.0
aF0.0
aF0.0
aF0.026181428
aF0.04071038
aF0.0
aF0.065501004
aF0.0
aF0.022574935
aF0.09941889
aF0.013698293
aF0.0
aF0.0
aF0.0
aF0.061199613
aF0.0
aF0.0
aF0.0
asS'Lab'
p1417
(lp1418
F0.024158498
aF0.0
aF0.0
aF0.035636418
aF0.028482225
aF0.031222537
aF0.0
aF0.0
aF0.034098156
aF0.0
aF0.018947667
aF0.0
aF0.0
aF0.03718853
aF0.049013954
aF0.014977205
aF0.0
aF0.0
aF0.013544309
asS'seething'
p1419
(lp1420
F0.0
aF0.0
aF0.0
aF0.0
aF0.0
aF0.0
aF0.0
aF0.0
aF0.2400095
aF0.26254842
aF0.39918223
aF0.40889356
aF0.0
aF0.0
aF0.1257402
aF0.1177801
aF0.0
aF0.1743102
aF0.0
asS'test'
p1421
(lp1422
F0.0
aF0.022639047
aF0.033050485
aF0.033966493
aF0.07847993
aF0.028511843
aF0.033516776
aF0.043882024
aF0.0
aF0.0
aF0.0006133906
aF0.0
aF0.0
aF0.0
aF0.0
aF0.0
aF0.0
aF0.0
aF0.02567718
asS'More'
p1423
(lp1424
F0.0
aF0.0147691555
aF0.0047453367
aF0.0
aF0.023480339
aF0.056496263
aF0.0
aF0.0
aF0.022099735
aF0.016581416
aF0.03216676
aF0.0
aF0.022693617
aF0.016356634
aF0.0
aF0.043977506
aF0.0
aF0.0
aF0.015140747
asS'dismayed'
p1425
(lp1426
F0.0
aF0.0
aF0.0
aF0.0
aF0.19403619
aF0.43895137
aF0.0
aF0.0
aF0.4958712
aF0.687276
aF0.30534753
aF0.42509013
aF0.0
aF0.0
aF0.51392937
aF0.5099149
aF0.0
aF0.38254642
aF0.0
asS'Maria'
p1427
(lp1428
F0.0
aF0.0
aF0.0
aF0.0
aF0.0
aF0.0
aF0.0
aF0.0
aF0.0
aF0.0
aF0.0
aF0.0
aF0.0
aF0.0
aF0.0
aF0.0
aF0.0
aF0.0
aF0.0
asS'Great'
p1429
(lp1430
F0.094677135
aF0.0
aF0.11775485
aF0.014615038
aF0.06322784
aF0.024967186
aF0.050490074
aF0.065855734
aF0.035077717
aF0.070935376
aF0.09432423
aF0.08097241
aF0.0
aF0.057598908
aF0.0839658
aF0.042207856
aF0.010985154
aF0.12913564
aF0.21733545
asS'unsure'
p1431
(lp1432
F0.0
aF0.0
aF0.0
aF0.0
aF0.19325747
aF0.14812769
aF0.0
aF0.0
aF0.05099833
aF0.0
aF0.077732846
aF0.003407543
aF0.0
aF0.0
aF0.0
aF0.06611794
aF0.0
aF0.0
aF0.0
asS'again.'
p1433
(lp1434
F0.12751451
aF0.0
aF0.0
aF0.030870028
aF0.09351126
aF0.0
aF0.011465143
aF0.0
aF0.0
aF0.0
aF0.024200799
aF0.015788589
aF0.0
aF0.047556832
aF0.0
aF0.026945418
aF0.106753
aF0.0
aF0.060948737
asS'energetic'
p1435
(lp1436
F0.0
aF0.0
aF0.0
aF0.0
aF0.0
aF0.0467653
aF0.024088707
aF0.0
aF0.0
aF0.0
aF0.0
aF0.0
aF0.0
aF0.0
aF0.0
aF0.0
aF0.0
aF0.003575156
aF0.0
asS'dical'
p1437
(lp1438
F0.0
aF0.0
aF0.0
aF0.0
aF0.0
aF0.0
aF0.0
aF0.0
aF0.0
aF0.0
aF0.0
aF0.0
aF0.0
aF0.0
aF0.0
aF0.0
aF0.0
aF0.0
aF0.0
asS'favourite'
p1439
(lp1440
F0.060716026
aF0.004935665
aF0.10030278
aF0.008933764
aF0.025417175
aF0.0
aF0.03627417
aF0.25149232
aF0.093510576
aF0.001761019
aF0.06955981
aF0.022772398
aF0.017112786
aF0.07560585
aF0.002761411
aF0.019483749
aF0.054707903
aF0.028728642
aF0.17943244
asS'Double'
p1441
(lp1442
F0.0
aF0.010559532
aF0.0
aF0.0
aF0.0
aF0.038267817
aF0.0
aF0.043946464
aF0.039885648
aF0.0
aF0.057483066
aF0.021481577
aF0.005722974
aF0.0
aF0.0
aF0.0059397398
aF0.0
aF0.0
aF0.03805211
asS'Wi'
p1443
(lp1444
I0
aI0
aI0
aI0
aI0
aI0
aI0
aI0
aI0
aI0
aI0
aI0
aI0
aI0
aI0
aI0
aI0
aI0
aI0
asS'problems'
p1445
(lp1446
F0.0042217667
aF0.00070249673
aF0.061436445
aF0.020279113
aF0.06651989
aF0.010383602
aF0.0014643222
aF0.001271561
aF0.0040404582
aF0.0038697582
aF0.009637719
aF0.011181329
aF0.0008332303
aF0.0686559
aF0.0008832708
aF0.08362597
aF0.014346177
aF0.007636047
aF0.0040115453
asS'trepidation'
p1447
(lp1448
F0.28426036
aF0.28194138
aF0.31849667
aF0.029315937
aF0.64421374
aF1.0
aF0.4844
aF0.12228031
aF0.45908305
aF0.33353737
aF0.13284537
aF0.18752159
aF0.30691305
aF0.023280287
aF0.486707
aF0.23824023
aF0.06897647
aF0.21762885
aF0.0
asS'squirm'
p1449
(lp1450
F0.12893121
aF0.0
aF0.035976376
aF0.030596092
aF0.0
aF0.03898055
aF0.24548832
aF0.0825806
aF0.049622145
aF0.15074854
aF0.052459616
aF0.011148634
aF0.066954136
aF0.009781088
aF0.050275534
aF0.06314971
aF0.023714505
aF0.03258338
aF0.06682999
asS'brands'
p1451
(lp1452
F0.0
aF0.007125859
aF0.0009807558
aF0.017205182
aF0.05365133
aF0.04264085
aF0.006279844
aF0.0
aF0.05797577
aF0.049768426
aF0.02154503
aF0.0
aF0.013929894
aF0.0
aF7.591853e-05
aF0.05363489
aF0.0
aF0.02898503
aF0.0
asS'restrained'
p1453
(lp1454
F0.08057106
aF0.05797574
aF0.056045085
aF0.0
aF0.12121458
aF0.15890643
aF0.002837316
aF0.0
aF0.042913225
aF0.071186356
aF0.20800489
aF0.17256811
aF0.11366122
aF0.027049784
aF0.039230168
aF0.072087474
aF0.049809832
aF0.089551516
aF0.031053424
asS'Sachin'
p1455
(lp1456
F0.0
aF0.0
aF0.0
aF0.0
aF0.0
aF0.0
aF0.0
aF0.0
aF0.0
aF0.0
aF0.0
aF0.0
aF0.0
aF0.0
aF0.0
aF0.0
aF0.0
aF0.0
aF0.0
asS'warn'
p1457
(lp1458
I0
aF0.08122363
aI0
aI0
aF0.35112122
aF0.08095095
aI0
aF0.044366833
aF0.027477795
aF0.008020406
aF0.074075714
aF0.000425463
aF0.09268785
aI0
aI0
aF0.04307518
aF0.054237623
aI0
aI0
asS'apology'
p1459
(lp1460
F0.0
aF0.014303172
aF0.14143182
aF0.2611833
aF0.0
aF0.0
aF0.027899837
aF0.0
aF0.048678096
aF0.06310901
aF0.058635242
aF0.09745766
aF0.0
aF0.017090563
aF0.10169537
aF0.1257892
aF0.17451198
aF0.15513271
aF0.064452566
asS'tested'
p1461
(lp1462
F0.0
aF0.022639047
aF0.04005765
aF0.06771801
aF0.0
aF0.014255921
aF0.06197633
aF0.056827817
aF0.0
aF0.0
aF0.036607146
aF0.0
aF0.0
aF0.048350237
aF0.0
aF0.0
aF0.0
aF0.0
aF0.02567718
asS'Fights'
p1463
(lp1464
F0.00076318736
aF0.009387925
aF0.017216688
aF0.032418553
aF0.09776961
aF0.0
aF0.0
aF0.014346354
aF0.0
aF0.0
aF0.23326632
aF0.012987561
aF0.0
aF0.0021026453
aF0.0048256307
aF0.026217805
aF0.0
aF0.0
aF0.04564271
asS'humiliated'
p1465
(lp1466
F0.07130127
aF0.001466657
aF0.033538584
aF0.0473487
aF0.037802152
aF0.050704513
aF0.07557775
aF0.11044714
aF0.047240283
aF0.07743562
aF0.07258838
aF0.10659698
aF0.01592052
aF0.0
aF0.11848781
aF0.057663385
aF0.0
aF0.10695872
aF0.031119693
asS'summit'
p1467
(lp1468
F0.033100933
aF0.10181778
aF0.038819294
aF0.0
aF0.0074970825
aF0.05536494
aF0.02368557
aF0.0
aF0.0
aF0.0
aF0.013149899
aF0.052930716
aF0.016365374
aF0.011942152
aF0.0
aF0.0
aF0.0
aF0.0
aF0.0
asS'fresh'
p1469
(lp1470
F0.04813607
aF0.054191392
aF0.0159496
aF0.0
aF0.027816491
aF0.023630751
aF0.0
aF0.10623803
aF0.0
aF0.0
aF0.0
aF0.0
aF0.094109155
aF0.029442677
aF0.004337382
aF0.0
aF0.0
aF0.0
aF0.0681837
asS'surprised'
p1471
(lp1472
F0.017187582
aF0.024479598
aF0.004901929
aF0.0
aF0.042165887
aF0.0
aF0.0
aF0.8850466
aF0.0
aF0.0
aF0.0
aF0.001050083
aF0.0
aF0.0
aF0.004791049
aF0.0
aF0.016841348
aF0.0
aF0.021269517
as.